
out/udisk.elf:     file format elf32-sparc


Disassembly of section .text:

06000000 <start>:
 6000000:	81 d8 20 00 	flush  %g0
 6000004:	a1 48 00 00 	rd  %psr, %l0
 6000008:	a7 58 00 00 	rd  %tbr, %l3
 600000c:	a6 0c ef f0 	and  %l3, 0xff0, %l3
 6000010:	a7 34 e0 04 	srl  %l3, 4, %l3
 6000014:	29 01 80 00 	sethi  %hi(0x6000000), %l4
 6000018:	a8 15 23 40 	or  %l4, 0x340, %l4	! 6000340 <trap_table>
 600001c:	aa 10 00 13 	mov  %l3, %l5
 6000020:	ec 05 00 00 	ld  [ %l4 ], %l6

06000024 <ENTER_LOOP>:
 6000024:	80 a5 80 15 	cmp  %l6, %l5

06000028 <ENTER_LOOP_C>:
 6000028:	34 80 00 07 	bg,a   6000044 <DETERMINE_END>
 600002c:	a8 05 20 0c 	add  %l4, 0xc, %l4
 6000030:	ec 05 20 04 	ld  [ %l4 + 4 ], %l6
 6000034:	80 a5 80 15 	cmp  %l6, %l5
 6000038:	36 80 00 13 	bge,a   6000084 <TRAP_ENTRY>
 600003c:	ec 05 20 08 	ld  [ %l4 + 8 ], %l6
 6000040:	a8 05 20 0c 	add  %l4, 0xc, %l4

06000044 <DETERMINE_END>:
 6000044:	ec 05 00 00 	ld  [ %l4 ], %l6
 6000048:	80 a5 a0 00 	cmp  %l6, 0
 600004c:	32 bf ff f7 	bne,a   6000028 <ENTER_LOOP_C>
 6000050:	80 a5 80 15 	cmp  %l6, %l5
 6000054:	ec 05 20 04 	ld  [ %l4 + 4 ], %l6
 6000058:	80 a5 a0 00 	cmp  %l6, 0
 600005c:	32 bf ff f3 	bne,a   6000028 <ENTER_LOOP_C>
 6000060:	80 a5 80 15 	cmp  %l6, %l5
 6000064:	ec 05 20 08 	ld  [ %l4 + 8 ], %l6
 6000068:	80 a5 a0 00 	cmp  %l6, 0
 600006c:	32 bf ff ef 	bne,a   6000028 <ENTER_LOOP_C>
 6000070:	80 a5 80 15 	cmp  %l6, %l5
 6000074:	91 d0 20 00 	ta  0
 6000078:	01 00 00 00 	nop 
 600007c:	01 00 00 00 	nop 
 6000080:	01 00 00 00 	nop 

06000084 <TRAP_ENTRY>:
 6000084:	81 c5 80 00 	jmp  %l6
 6000088:	01 00 00 00 	nop 

0600008c <_hardreset_svt>:
 600008c:	8b 44 40 00 	rd  %asr17, %g5
 6000090:	03 00 00 08 	sethi  %hi(0x2000), %g1
 6000094:	8a 11 40 01 	or  %g5, %g1, %g5
 6000098:	a3 81 40 00 	mov  %g5, %asr17
 600009c:	01 00 00 00 	nop 
 60000a0:	01 00 00 00 	nop 
 60000a4:	01 00 00 00 	nop 
 60000a8:	82 10 20 e0 	mov  0xe0, %g1	! e0 <data_start+0xe0>
 60000ac:	81 88 40 00 	mov  %g1, %psr
 60000b0:	81 90 20 02 	wr  %g0, 2, %wim
 60000b4:	01 00 00 00 	nop 
 60000b8:	01 00 00 00 	nop 
 60000bc:	01 00 00 00 	nop 
 60000c0:	03 01 80 00 	sethi  %hi(0x6000000), %g1
 60000c4:	82 10 60 00 	mov  %g1, %g1	! 6000000 <start>
 60000c8:	81 98 40 00 	mov  %g1, %tbr
 60000cc:	81 80 20 00 	mov  %g0, %y
 60000d0:	3d 03 40 1c 	sethi  %hi(0xd007000), %fp
 60000d4:	bc 17 a0 00 	mov  %fp, %fp	! d007000 <RAM_END>
 60000d8:	1d 03 40 1c 	sethi  %hi(0xd007000), %sp
 60000dc:	9c 13 a0 00 	mov  %sp, %sp	! d007000 <RAM_END>
 60000e0:	9c 23 a0 40 	sub  %sp, 0x40, %sp
 60000e4:	40 00 02 8b 	call  6000b10 <main>
 60000e8:	01 00 00 00 	nop 

060000ec <_halt>:
 60000ec:	10 80 00 00 	b  60000ec <_halt>
 60000f0:	91 d0 20 01 	ta  1
 60000f4:	01 00 00 00 	nop 

060000f8 <_window_overflow_svt>:
 60000f8:	a7 50 00 00 	rd  %wim, %l3
 60000fc:	ae 10 00 01 	mov  %g1, %l7
 6000100:	83 34 e0 01 	srl  %l3, 1, %g1
 6000104:	a9 2c e0 0f 	sll  %l3, 0xf, %l4
 6000108:	82 15 00 01 	or  %l4, %g1, %g1
 600010c:	81 e0 00 00 	save 
 6000110:	81 90 40 00 	mov  %g1, %wim
 6000114:	01 00 00 00 	nop 
 6000118:	01 00 00 00 	nop 
 600011c:	01 00 00 00 	nop 
 6000120:	e0 3b a0 00 	std  %l0, [ %sp ]
 6000124:	e4 3b a0 08 	std  %l2, [ %sp + 8 ]
 6000128:	e8 3b a0 10 	std  %l4, [ %sp + 0x10 ]
 600012c:	ec 3b a0 18 	std  %l6, [ %sp + 0x18 ]
 6000130:	f0 3b a0 20 	std  %i0, [ %sp + 0x20 ]
 6000134:	f4 3b a0 28 	std  %i2, [ %sp + 0x28 ]
 6000138:	f8 3b a0 30 	std  %i4, [ %sp + 0x30 ]
 600013c:	fc 3b a0 38 	std  %fp, [ %sp + 0x38 ]
 6000140:	81 e8 00 00 	restore 
 6000144:	82 10 00 17 	mov  %l7, %g1
 6000148:	81 c4 40 00 	jmp  %l1
 600014c:	81 cc 80 00 	rett  %l2
 6000150:	01 00 00 00 	nop 

06000154 <_window_underflow_svt>:
 6000154:	a7 50 00 00 	rd  %wim, %l3
 6000158:	a9 2c e0 01 	sll  %l3, 1, %l4
 600015c:	ab 34 e0 0f 	srl  %l3, 0xf, %l5
 6000160:	aa 15 40 14 	or  %l5, %l4, %l5
 6000164:	81 95 40 00 	mov  %l5, %wim
 6000168:	01 00 00 00 	nop 
 600016c:	01 00 00 00 	nop 
 6000170:	01 00 00 00 	nop 
 6000174:	81 e8 00 00 	restore 
 6000178:	81 e8 00 00 	restore 
 600017c:	e0 1b a0 00 	ldd  [ %sp ], %l0
 6000180:	e4 1b a0 08 	ldd  [ %sp + 8 ], %l2
 6000184:	e8 1b a0 10 	ldd  [ %sp + 0x10 ], %l4
 6000188:	ec 1b a0 18 	ldd  [ %sp + 0x18 ], %l6
 600018c:	f0 1b a0 20 	ldd  [ %sp + 0x20 ], %i0
 6000190:	f4 1b a0 28 	ldd  [ %sp + 0x28 ], %i2
 6000194:	f8 1b a0 30 	ldd  [ %sp + 0x30 ], %i4
 6000198:	fc 1b a0 38 	ldd  [ %sp + 0x38 ], %fp
 600019c:	81 e0 00 00 	save 
 60001a0:	81 e0 00 00 	save 
 60001a4:	81 c4 40 00 	jmp  %l1
 60001a8:	81 cc 80 00 	rett  %l2
 60001ac:	01 00 00 00 	nop 

060001b0 <_leonbare_irq_entry_svt>:
 60001b0:	ae 25 60 10 	sub  %l5, 0x10, %l7
 60001b4:	a7 50 00 00 	rd  %wim, %l3
 60001b8:	aa 27 a0 b0 	sub  %fp, 0xb0, %l5
 60001bc:	e0 25 60 60 	st  %l0, [ %l5 + 0x60 ]
 60001c0:	e2 25 60 64 	st  %l1, [ %l5 + 0x64 ]
 60001c4:	e4 25 60 68 	st  %l2, [ %l5 + 0x68 ]
 60001c8:	c2 25 60 74 	st  %g1, [ %l5 + 0x74 ]
 60001cc:	c4 3d 60 78 	std  %g2, [ %l5 + 0x78 ]
 60001d0:	c8 3d 60 80 	std  %g4, [ %l5 + 0x80 ]
 60001d4:	cc 3d 60 88 	std  %g6, [ %l5 + 0x88 ]
 60001d8:	85 40 00 00 	rd  %y, %g2
 60001dc:	c4 25 60 6c 	st  %g2, [ %l5 + 0x6c ]
 60001e0:	f0 3d 60 90 	std  %i0, [ %l5 + 0x90 ]
 60001e4:	f4 3d 60 98 	std  %i2, [ %l5 + 0x98 ]
 60001e8:	f8 3d 60 a0 	std  %i4, [ %l5 + 0xa0 ]
 60001ec:	fc 3d 60 a8 	std  %fp, [ %l5 + 0xa8 ]
 60001f0:	a8 10 20 01 	mov  1, %l4
 60001f4:	a9 2d 00 10 	sll  %l4, %l0, %l4
 60001f8:	80 8d 00 13 	btst  %l4, %l3
 60001fc:	02 80 00 10 	be  600023c <CURRENT_WINDOW_IS_VALID>
 6000200:	01 00 00 00 	nop 

06000204 <CURRENT_WINDOW_IS_INVALID>:
 6000204:	85 34 e0 01 	srl  %l3, 1, %g2
 6000208:	a7 2c e0 0f 	sll  %l3, 0xf, %l3
 600020c:	84 14 c0 02 	or  %l3, %g2, %g2
 6000210:	81 e0 00 00 	save 
 6000214:	81 90 80 00 	mov  %g2, %wim
 6000218:	e0 3b a0 00 	std  %l0, [ %sp ]
 600021c:	e4 3b a0 08 	std  %l2, [ %sp + 8 ]
 6000220:	e8 3b a0 10 	std  %l4, [ %sp + 0x10 ]
 6000224:	ec 3b a0 18 	std  %l6, [ %sp + 0x18 ]
 6000228:	f0 3b a0 20 	std  %i0, [ %sp + 0x20 ]
 600022c:	f4 3b a0 28 	std  %i2, [ %sp + 0x28 ]
 6000230:	f8 3b a0 30 	std  %i4, [ %sp + 0x30 ]
 6000234:	fc 3b a0 38 	std  %fp, [ %sp + 0x38 ]
 6000238:	81 e8 00 00 	restore 

0600023c <CURRENT_WINDOW_IS_VALID>:
 600023c:	9c 10 00 15 	mov  %l5, %sp
 6000240:	90 14 2f 00 	or  %l0, 0xf00, %o0
 6000244:	81 8a 20 20 	wr  %o0, 0x20, %psr
 6000248:	01 00 00 00 	nop 
 600024c:	01 00 00 00 	nop 
 6000250:	01 00 00 00 	nop 
 6000254:	90 10 00 17 	mov  %l7, %o0
 6000258:	40 00 01 db 	call  60009c4 <Isr_Handler>
 600025c:	92 03 a0 60 	add  %sp, 0x60, %o1
 6000260:	81 8c 00 00 	mov  %l0, %psr
 6000264:	82 10 20 02 	mov  2, %g1
 6000268:	83 28 40 10 	sll  %g1, %l0, %g1
 600026c:	85 30 60 10 	srl  %g1, 0x10, %g2
 6000270:	82 10 40 02 	or  %g1, %g2, %g1
 6000274:	85 50 00 00 	rd  %wim, %g2
 6000278:	80 88 80 01 	btst  %g2, %g1
 600027c:	02 80 00 1e 	be  60002f4 <WINDOW_IS_NOT_UNDERFLOW>
 6000280:	01 00 00 00 	nop 

06000284 <WINDOW_IS_UNDERFLOW>:
 6000284:	83 28 a0 01 	sll  %g2, 1, %g1
 6000288:	85 30 a0 0f 	srl  %g2, 0xf, %g2
 600028c:	82 10 40 02 	or  %g1, %g2, %g1
 6000290:	81 90 40 00 	mov  %g1, %wim
 6000294:	c2 03 a0 6c 	ld  [ %sp + 0x6c ], %g1
 6000298:	81 80 40 00 	mov  %g1, %y
 600029c:	f0 1b a0 90 	ldd  [ %sp + 0x90 ], %i0
 60002a0:	f4 1b a0 98 	ldd  [ %sp + 0x98 ], %i2
 60002a4:	f8 1b a0 a0 	ldd  [ %sp + 0xa0 ], %i4
 60002a8:	fc 1b a0 a8 	ldd  [ %sp + 0xa8 ], %fp
 60002ac:	c2 03 a0 74 	ld  [ %sp + 0x74 ], %g1
 60002b0:	c4 1b a0 78 	ldd  [ %sp + 0x78 ], %g2
 60002b4:	c8 1b a0 80 	ldd  [ %sp + 0x80 ], %g4
 60002b8:	cc 1b a0 88 	ldd  [ %sp + 0x88 ], %g6
 60002bc:	e0 03 a0 60 	ld  [ %sp + 0x60 ], %l0
 60002c0:	e2 03 a0 64 	ld  [ %sp + 0x64 ], %l1
 60002c4:	e4 03 a0 68 	ld  [ %sp + 0x68 ], %l2
 60002c8:	81 e8 00 00 	restore 
 60002cc:	e0 1b a0 00 	ldd  [ %sp ], %l0
 60002d0:	e4 1b a0 08 	ldd  [ %sp + 8 ], %l2
 60002d4:	e8 1b a0 10 	ldd  [ %sp + 0x10 ], %l4
 60002d8:	ec 1b a0 18 	ldd  [ %sp + 0x18 ], %l6
 60002dc:	f0 1b a0 20 	ldd  [ %sp + 0x20 ], %i0
 60002e0:	f4 1b a0 28 	ldd  [ %sp + 0x28 ], %i2
 60002e4:	f8 1b a0 30 	ldd  [ %sp + 0x30 ], %i4
 60002e8:	fc 1b a0 38 	ldd  [ %sp + 0x38 ], %fp
 60002ec:	10 80 00 0f 	b  6000328 <IRQ_RETURN>
 60002f0:	81 e0 00 00 	save 

060002f4 <WINDOW_IS_NOT_UNDERFLOW>:
 60002f4:	c2 03 a0 6c 	ld  [ %sp + 0x6c ], %g1
 60002f8:	81 80 40 00 	mov  %g1, %y
 60002fc:	f0 1b a0 90 	ldd  [ %sp + 0x90 ], %i0
 6000300:	f4 1b a0 98 	ldd  [ %sp + 0x98 ], %i2
 6000304:	f8 1b a0 a0 	ldd  [ %sp + 0xa0 ], %i4
 6000308:	fc 1b a0 a8 	ldd  [ %sp + 0xa8 ], %fp
 600030c:	c2 03 a0 74 	ld  [ %sp + 0x74 ], %g1
 6000310:	c4 1b a0 78 	ldd  [ %sp + 0x78 ], %g2
 6000314:	c8 1b a0 80 	ldd  [ %sp + 0x80 ], %g4
 6000318:	cc 1b a0 88 	ldd  [ %sp + 0x88 ], %g6
 600031c:	e0 03 a0 60 	ld  [ %sp + 0x60 ], %l0
 6000320:	e2 03 a0 64 	ld  [ %sp + 0x64 ], %l1
 6000324:	e4 03 a0 68 	ld  [ %sp + 0x68 ], %l2

06000328 <IRQ_RETURN>:
 6000328:	81 8c 00 00 	mov  %l0, %psr
 600032c:	01 00 00 00 	nop 
 6000330:	01 00 00 00 	nop 
 6000334:	01 00 00 00 	nop 
 6000338:	81 c4 40 00 	jmp  %l1
 600033c:	81 cc 80 00 	rett  %l2

06000340 <trap_table>:
	...
 6000348:	06 00 00 8c 	unknown
 600034c:	00 00 00 05 	unimp  0x5
 6000350:	00 00 00 05 	unimp  0x5
 6000354:	06 00 00 f8 	unknown
 6000358:	00 00 00 06 	unimp  0x6
 600035c:	00 00 00 06 	unimp  0x6
 6000360:	06 00 01 54 	unknown
 6000364:	00 00 00 11 	unimp  0x11
 6000368:	00 00 00 1f 	unimp  0x1f
 600036c:	06 00 01 b0 	unknown
	...

0600037c <.umul>:
 600037c:	98 12 00 09 	or  %o0, %o1, %o4
 6000380:	81 82 00 00 	mov  %o0, %y
 6000384:	9a ab 2f ff 	andncc  %o4, 0xfff, %o5
 6000388:	02 80 00 25 	be  600041c <mul_shortway>
 600038c:	98 88 00 00 	andcc  %g0, %g0, %o4
 6000390:	99 23 00 09 	mulscc  %o4, %o1, %o4
 6000394:	99 23 00 09 	mulscc  %o4, %o1, %o4
 6000398:	99 23 00 09 	mulscc  %o4, %o1, %o4
 600039c:	99 23 00 09 	mulscc  %o4, %o1, %o4
 60003a0:	99 23 00 09 	mulscc  %o4, %o1, %o4
 60003a4:	99 23 00 09 	mulscc  %o4, %o1, %o4
 60003a8:	99 23 00 09 	mulscc  %o4, %o1, %o4
 60003ac:	99 23 00 09 	mulscc  %o4, %o1, %o4
 60003b0:	99 23 00 09 	mulscc  %o4, %o1, %o4
 60003b4:	99 23 00 09 	mulscc  %o4, %o1, %o4
 60003b8:	99 23 00 09 	mulscc  %o4, %o1, %o4
 60003bc:	99 23 00 09 	mulscc  %o4, %o1, %o4
 60003c0:	99 23 00 09 	mulscc  %o4, %o1, %o4
 60003c4:	99 23 00 09 	mulscc  %o4, %o1, %o4
 60003c8:	99 23 00 09 	mulscc  %o4, %o1, %o4
 60003cc:	99 23 00 09 	mulscc  %o4, %o1, %o4
 60003d0:	99 23 00 09 	mulscc  %o4, %o1, %o4
 60003d4:	99 23 00 09 	mulscc  %o4, %o1, %o4
 60003d8:	99 23 00 09 	mulscc  %o4, %o1, %o4
 60003dc:	99 23 00 09 	mulscc  %o4, %o1, %o4
 60003e0:	99 23 00 09 	mulscc  %o4, %o1, %o4
 60003e4:	99 23 00 09 	mulscc  %o4, %o1, %o4
 60003e8:	99 23 00 09 	mulscc  %o4, %o1, %o4
 60003ec:	99 23 00 09 	mulscc  %o4, %o1, %o4
 60003f0:	99 23 00 09 	mulscc  %o4, %o1, %o4
 60003f4:	99 23 00 09 	mulscc  %o4, %o1, %o4
 60003f8:	99 23 00 09 	mulscc  %o4, %o1, %o4
 60003fc:	99 23 00 09 	mulscc  %o4, %o1, %o4
 6000400:	99 23 00 09 	mulscc  %o4, %o1, %o4
 6000404:	99 23 00 09 	mulscc  %o4, %o1, %o4
 6000408:	99 23 00 09 	mulscc  %o4, %o1, %o4
 600040c:	99 23 00 09 	mulscc  %o4, %o1, %o4
 6000410:	99 23 00 00 	mulscc  %o4, %g0, %o4
 6000414:	81 c3 e0 08 	retl 
 6000418:	91 40 00 00 	rd  %y, %o0

0600041c <mul_shortway>:
 600041c:	99 23 00 09 	mulscc  %o4, %o1, %o4
 6000420:	99 23 00 09 	mulscc  %o4, %o1, %o4
 6000424:	99 23 00 09 	mulscc  %o4, %o1, %o4
 6000428:	99 23 00 09 	mulscc  %o4, %o1, %o4
 600042c:	99 23 00 09 	mulscc  %o4, %o1, %o4
 6000430:	99 23 00 09 	mulscc  %o4, %o1, %o4
 6000434:	99 23 00 09 	mulscc  %o4, %o1, %o4
 6000438:	99 23 00 09 	mulscc  %o4, %o1, %o4
 600043c:	99 23 00 09 	mulscc  %o4, %o1, %o4
 6000440:	99 23 00 09 	mulscc  %o4, %o1, %o4
 6000444:	99 23 00 09 	mulscc  %o4, %o1, %o4
 6000448:	99 23 00 09 	mulscc  %o4, %o1, %o4
 600044c:	99 23 00 00 	mulscc  %o4, %g0, %o4
 6000450:	9b 40 00 00 	rd  %y, %o5
 6000454:	99 2b 20 0c 	sll  %o4, 0xc, %o4
 6000458:	9b 33 60 14 	srl  %o5, 0x14, %o5
 600045c:	81 c3 e0 08 	retl 
 6000460:	90 13 40 0c 	or  %o5, %o4, %o0

06000464 <.udiv>:
 6000464:	10 80 00 0b 	b  6000490 <ready_to_divide>
 6000468:	86 10 20 00 	clr  %g3

0600046c <.div>:
 600046c:	80 92 40 08 	orcc  %o1, %o0, %g0
 6000470:	16 80 00 08 	bge  6000490 <ready_to_divide>
 6000474:	86 1a 40 08 	xor  %o1, %o0, %g3
 6000478:	80 92 40 00 	tst  %o1
 600047c:	16 80 00 04 	bge  600048c <.div+0x20>
 6000480:	80 92 00 00 	tst  %o0
 6000484:	16 80 00 03 	bge  6000490 <ready_to_divide>
 6000488:	92 20 00 09 	neg  %o1
 600048c:	90 20 00 08 	neg  %o0

06000490 <ready_to_divide>:
 6000490:	9a 92 40 00 	orcc  %o1, %g0, %o5
 6000494:	12 80 00 05 	bne  60004a8 <ready_to_divide+0x18>
 6000498:	96 10 00 08 	mov  %o0, %o3
 600049c:	91 d0 20 02 	ta  2
 60004a0:	81 c3 e0 08 	retl 
 60004a4:	90 10 00 00 	mov  %g0, %o0
 60004a8:	80 a2 c0 0d 	cmp  %o3, %o5
 60004ac:	0a 80 00 95 	bcs  6000700 <got_result>
 60004b0:	94 10 00 00 	mov  %g0, %o2
 60004b4:	03 02 00 00 	sethi  %hi(0x8000000), %g1
 60004b8:	80 a2 c0 01 	cmp  %o3, %g1
 60004bc:	0a 80 00 28 	bcs  600055c <not_really_big>
 60004c0:	98 10 00 00 	mov  %g0, %o4
 60004c4:	80 a3 40 01 	cmp  %o5, %g1
 60004c8:	1a 80 00 0d 	bcc  60004fc <not_too_big>
 60004cc:	84 10 20 01 	mov  1, %g2
 60004d0:	9b 2b 60 04 	sll  %o5, 4, %o5
 60004d4:	10 bf ff fc 	b  60004c4 <ready_to_divide+0x34>
 60004d8:	98 03 20 01 	inc  %o4
 60004dc:	9a 83 40 0d 	addcc  %o5, %o5, %o5
 60004e0:	1a 80 00 07 	bcc  60004fc <not_too_big>
 60004e4:	84 00 a0 01 	inc  %g2
 60004e8:	83 28 60 04 	sll  %g1, 4, %g1
 60004ec:	9b 33 60 01 	srl  %o5, 1, %o5
 60004f0:	9a 03 40 01 	add  %o5, %g1, %o5
 60004f4:	10 80 00 07 	b  6000510 <do_single_div>
 60004f8:	84 20 a0 01 	dec  %g2

060004fc <not_too_big>:
 60004fc:	80 a3 40 0b 	cmp  %o5, %o3
 6000500:	0a bf ff f7 	bcs  60004dc <ready_to_divide+0x4c>
 6000504:	01 00 00 00 	nop 
 6000508:	02 80 00 02 	be  6000510 <do_single_div>
 600050c:	01 00 00 00 	nop 

06000510 <do_single_div>:
 6000510:	84 a0 a0 01 	deccc  %g2
 6000514:	06 80 00 76 	bl  60006ec <end_regular_divide>
 6000518:	01 00 00 00 	nop 
 600051c:	96 22 c0 0d 	sub  %o3, %o5, %o3
 6000520:	94 10 20 01 	mov  1, %o2
 6000524:	10 80 00 0a 	b  600054c <end_single_divloop>
 6000528:	01 00 00 00 	nop 

0600052c <single_divloop>:
 600052c:	95 2a a0 01 	sll  %o2, 1, %o2
 6000530:	06 80 00 05 	bl  6000544 <single_divloop+0x18>
 6000534:	9b 33 60 01 	srl  %o5, 1, %o5
 6000538:	96 22 c0 0d 	sub  %o3, %o5, %o3
 600053c:	10 80 00 04 	b  600054c <end_single_divloop>
 6000540:	94 02 a0 01 	inc  %o2
 6000544:	96 02 c0 0d 	add  %o3, %o5, %o3
 6000548:	94 22 a0 01 	dec  %o2

0600054c <end_single_divloop>:
 600054c:	84 a0 a0 01 	deccc  %g2
 6000550:	16 bf ff f7 	bge  600052c <single_divloop>
 6000554:	80 92 c0 00 	tst  %o3
 6000558:	30 80 00 65 	b,a   60006ec <end_regular_divide>

0600055c <not_really_big>:
 600055c:	9b 2b 60 04 	sll  %o5, 4, %o5
 6000560:	80 a3 40 0b 	cmp  %o5, %o3
 6000564:	08 bf ff fe 	bleu  600055c <not_really_big>
 6000568:	98 83 20 01 	inccc  %o4
 600056c:	02 80 00 65 	be  6000700 <got_result>
 6000570:	98 23 20 01 	dec  %o4
 6000574:	80 92 c0 00 	tst  %o3

06000578 <divloop>:
 6000578:	95 2a a0 04 	sll  %o2, 4, %o2
 600057c:	06 80 00 2f 	bl  6000638 <L1.16>
 6000580:	9b 33 60 01 	srl  %o5, 1, %o5
 6000584:	96 a2 c0 0d 	subcc  %o3, %o5, %o3
 6000588:	06 80 00 17 	bl  60005e4 <L2.17>
 600058c:	9b 33 60 01 	srl  %o5, 1, %o5
 6000590:	96 a2 c0 0d 	subcc  %o3, %o5, %o3
 6000594:	06 80 00 0b 	bl  60005c0 <L3.19>
 6000598:	9b 33 60 01 	srl  %o5, 1, %o5
 600059c:	96 a2 c0 0d 	subcc  %o3, %o5, %o3
 60005a0:	06 80 00 05 	bl  60005b4 <L4.23>
 60005a4:	9b 33 60 01 	srl  %o5, 1, %o5
 60005a8:	96 a2 c0 0d 	subcc  %o3, %o5, %o3
 60005ac:	10 80 00 50 	b  60006ec <end_regular_divide>
 60005b0:	94 02 a0 0f 	add  %o2, 0xf, %o2

060005b4 <L4.23>:
 60005b4:	96 82 c0 0d 	addcc  %o3, %o5, %o3
 60005b8:	10 80 00 4d 	b  60006ec <end_regular_divide>
 60005bc:	94 02 a0 0d 	add  %o2, 0xd, %o2

060005c0 <L3.19>:
 60005c0:	96 82 c0 0d 	addcc  %o3, %o5, %o3
 60005c4:	06 80 00 05 	bl  60005d8 <L4.21>
 60005c8:	9b 33 60 01 	srl  %o5, 1, %o5
 60005cc:	96 a2 c0 0d 	subcc  %o3, %o5, %o3
 60005d0:	10 80 00 47 	b  60006ec <end_regular_divide>
 60005d4:	94 02 a0 0b 	add  %o2, 0xb, %o2

060005d8 <L4.21>:
 60005d8:	96 82 c0 0d 	addcc  %o3, %o5, %o3
 60005dc:	10 80 00 44 	b  60006ec <end_regular_divide>
 60005e0:	94 02 a0 09 	add  %o2, 9, %o2

060005e4 <L2.17>:
 60005e4:	96 82 c0 0d 	addcc  %o3, %o5, %o3
 60005e8:	06 80 00 0b 	bl  6000614 <L3.17>
 60005ec:	9b 33 60 01 	srl  %o5, 1, %o5
 60005f0:	96 a2 c0 0d 	subcc  %o3, %o5, %o3
 60005f4:	06 80 00 05 	bl  6000608 <L4.19>
 60005f8:	9b 33 60 01 	srl  %o5, 1, %o5
 60005fc:	96 a2 c0 0d 	subcc  %o3, %o5, %o3
 6000600:	10 80 00 3b 	b  60006ec <end_regular_divide>
 6000604:	94 02 a0 07 	add  %o2, 7, %o2

06000608 <L4.19>:
 6000608:	96 82 c0 0d 	addcc  %o3, %o5, %o3
 600060c:	10 80 00 38 	b  60006ec <end_regular_divide>
 6000610:	94 02 a0 05 	add  %o2, 5, %o2

06000614 <L3.17>:
 6000614:	96 82 c0 0d 	addcc  %o3, %o5, %o3
 6000618:	06 80 00 05 	bl  600062c <L4.17>
 600061c:	9b 33 60 01 	srl  %o5, 1, %o5
 6000620:	96 a2 c0 0d 	subcc  %o3, %o5, %o3
 6000624:	10 80 00 32 	b  60006ec <end_regular_divide>
 6000628:	94 02 a0 03 	add  %o2, 3, %o2

0600062c <L4.17>:
 600062c:	96 82 c0 0d 	addcc  %o3, %o5, %o3
 6000630:	10 80 00 2f 	b  60006ec <end_regular_divide>
 6000634:	94 02 a0 01 	inc  %o2

06000638 <L1.16>:
 6000638:	96 82 c0 0d 	addcc  %o3, %o5, %o3
 600063c:	06 80 00 17 	bl  6000698 <L2.15>
 6000640:	9b 33 60 01 	srl  %o5, 1, %o5
 6000644:	96 a2 c0 0d 	subcc  %o3, %o5, %o3
 6000648:	06 80 00 0b 	bl  6000674 <L3.15>
 600064c:	9b 33 60 01 	srl  %o5, 1, %o5
 6000650:	96 a2 c0 0d 	subcc  %o3, %o5, %o3
 6000654:	06 80 00 05 	bl  6000668 <L4.15>
 6000658:	9b 33 60 01 	srl  %o5, 1, %o5
 600065c:	96 a2 c0 0d 	subcc  %o3, %o5, %o3
 6000660:	10 80 00 23 	b  60006ec <end_regular_divide>
 6000664:	94 02 bf ff 	add  %o2, -1, %o2

06000668 <L4.15>:
 6000668:	96 82 c0 0d 	addcc  %o3, %o5, %o3
 600066c:	10 80 00 20 	b  60006ec <end_regular_divide>
 6000670:	94 02 bf fd 	add  %o2, -3, %o2

06000674 <L3.15>:
 6000674:	96 82 c0 0d 	addcc  %o3, %o5, %o3
 6000678:	06 80 00 05 	bl  600068c <L4.13>
 600067c:	9b 33 60 01 	srl  %o5, 1, %o5
 6000680:	96 a2 c0 0d 	subcc  %o3, %o5, %o3
 6000684:	10 80 00 1a 	b  60006ec <end_regular_divide>
 6000688:	94 02 bf fb 	add  %o2, -5, %o2

0600068c <L4.13>:
 600068c:	96 82 c0 0d 	addcc  %o3, %o5, %o3
 6000690:	10 80 00 17 	b  60006ec <end_regular_divide>
 6000694:	94 02 bf f9 	add  %o2, -7, %o2

06000698 <L2.15>:
 6000698:	96 82 c0 0d 	addcc  %o3, %o5, %o3
 600069c:	06 80 00 0b 	bl  60006c8 <L3.13>
 60006a0:	9b 33 60 01 	srl  %o5, 1, %o5
 60006a4:	96 a2 c0 0d 	subcc  %o3, %o5, %o3
 60006a8:	06 80 00 05 	bl  60006bc <L4.11>
 60006ac:	9b 33 60 01 	srl  %o5, 1, %o5
 60006b0:	96 a2 c0 0d 	subcc  %o3, %o5, %o3
 60006b4:	10 80 00 0e 	b  60006ec <end_regular_divide>
 60006b8:	94 02 bf f7 	add  %o2, -9, %o2

060006bc <L4.11>:
 60006bc:	96 82 c0 0d 	addcc  %o3, %o5, %o3
 60006c0:	10 80 00 0b 	b  60006ec <end_regular_divide>
 60006c4:	94 02 bf f5 	add  %o2, -11, %o2

060006c8 <L3.13>:
 60006c8:	96 82 c0 0d 	addcc  %o3, %o5, %o3
 60006cc:	06 80 00 05 	bl  60006e0 <L4.9>
 60006d0:	9b 33 60 01 	srl  %o5, 1, %o5
 60006d4:	96 a2 c0 0d 	subcc  %o3, %o5, %o3
 60006d8:	10 80 00 05 	b  60006ec <end_regular_divide>
 60006dc:	94 02 bf f3 	add  %o2, -13, %o2

060006e0 <L4.9>:
 60006e0:	96 82 c0 0d 	addcc  %o3, %o5, %o3
 60006e4:	10 80 00 02 	b  60006ec <end_regular_divide>
 60006e8:	94 02 bf f1 	add  %o2, -15, %o2

060006ec <end_regular_divide>:
 60006ec:	98 a3 20 01 	deccc  %o4
 60006f0:	16 bf ff a2 	bge  6000578 <divloop>
 60006f4:	80 92 c0 00 	tst  %o3
 60006f8:	26 80 00 02 	bl,a   6000700 <got_result>
 60006fc:	94 22 a0 01 	dec  %o2

06000700 <got_result>:
 6000700:	80 90 c0 00 	tst  %g3
 6000704:	26 80 00 02 	bl,a   600070c <got_result+0xc>
 6000708:	94 20 00 0a 	neg  %o2
 600070c:	81 c3 e0 08 	retl 
 6000710:	90 10 00 0a 	mov  %o2, %o0

06000714 <.urem>:
 6000714:	10 80 00 0b 	b  6000740 <divide>
 6000718:	86 10 20 00 	clr  %g3

0600071c <.rem>:
 600071c:	80 92 40 08 	orcc  %o1, %o0, %g0
 6000720:	16 80 00 08 	bge  6000740 <divide>
 6000724:	86 10 00 08 	mov  %o0, %g3
 6000728:	80 92 40 00 	tst  %o1
 600072c:	16 80 00 04 	bge  600073c <.rem+0x20>
 6000730:	80 92 00 00 	tst  %o0
 6000734:	16 80 00 03 	bge  6000740 <divide>
 6000738:	92 20 00 09 	neg  %o1
 600073c:	90 20 00 08 	neg  %o0

06000740 <divide>:
 6000740:	9a 92 40 00 	orcc  %o1, %g0, %o5
 6000744:	12 80 00 05 	bne  6000758 <divide+0x18>
 6000748:	96 10 00 08 	mov  %o0, %o3
 600074c:	91 d0 20 02 	ta  2
 6000750:	81 c3 e0 08 	retl 
 6000754:	90 10 00 00 	mov  %g0, %o0
 6000758:	80 a2 c0 0d 	cmp  %o3, %o5
 600075c:	0a 80 00 95 	bcs  60009b0 <got_result>
 6000760:	94 10 00 00 	mov  %g0, %o2
 6000764:	03 02 00 00 	sethi  %hi(0x8000000), %g1
 6000768:	80 a2 c0 01 	cmp  %o3, %g1
 600076c:	0a 80 00 28 	bcs  600080c <not_really_big>
 6000770:	98 10 00 00 	mov  %g0, %o4
 6000774:	80 a3 40 01 	cmp  %o5, %g1
 6000778:	1a 80 00 0d 	bcc  60007ac <not_too_big>
 600077c:	84 10 20 01 	mov  1, %g2
 6000780:	9b 2b 60 04 	sll  %o5, 4, %o5
 6000784:	10 bf ff fc 	b  6000774 <divide+0x34>
 6000788:	98 03 20 01 	inc  %o4
 600078c:	9a 83 40 0d 	addcc  %o5, %o5, %o5
 6000790:	1a 80 00 07 	bcc  60007ac <not_too_big>
 6000794:	84 00 a0 01 	inc  %g2
 6000798:	83 28 60 04 	sll  %g1, 4, %g1
 600079c:	9b 33 60 01 	srl  %o5, 1, %o5
 60007a0:	9a 03 40 01 	add  %o5, %g1, %o5
 60007a4:	10 80 00 07 	b  60007c0 <do_single_div>
 60007a8:	84 20 a0 01 	dec  %g2

060007ac <not_too_big>:
 60007ac:	80 a3 40 0b 	cmp  %o5, %o3
 60007b0:	0a bf ff f7 	bcs  600078c <divide+0x4c>
 60007b4:	01 00 00 00 	nop 
 60007b8:	02 80 00 02 	be  60007c0 <do_single_div>
 60007bc:	01 00 00 00 	nop 

060007c0 <do_single_div>:
 60007c0:	84 a0 a0 01 	deccc  %g2
 60007c4:	06 80 00 76 	bl  600099c <end_regular_divide>
 60007c8:	01 00 00 00 	nop 
 60007cc:	96 22 c0 0d 	sub  %o3, %o5, %o3
 60007d0:	94 10 20 01 	mov  1, %o2
 60007d4:	10 80 00 0a 	b  60007fc <end_single_divloop>
 60007d8:	01 00 00 00 	nop 

060007dc <single_divloop>:
 60007dc:	95 2a a0 01 	sll  %o2, 1, %o2
 60007e0:	06 80 00 05 	bl  60007f4 <single_divloop+0x18>
 60007e4:	9b 33 60 01 	srl  %o5, 1, %o5
 60007e8:	96 22 c0 0d 	sub  %o3, %o5, %o3
 60007ec:	10 80 00 04 	b  60007fc <end_single_divloop>
 60007f0:	94 02 a0 01 	inc  %o2
 60007f4:	96 02 c0 0d 	add  %o3, %o5, %o3
 60007f8:	94 22 a0 01 	dec  %o2

060007fc <end_single_divloop>:
 60007fc:	84 a0 a0 01 	deccc  %g2
 6000800:	16 bf ff f7 	bge  60007dc <single_divloop>
 6000804:	80 92 c0 00 	tst  %o3
 6000808:	30 80 00 65 	b,a   600099c <end_regular_divide>

0600080c <not_really_big>:
 600080c:	9b 2b 60 04 	sll  %o5, 4, %o5
 6000810:	80 a3 40 0b 	cmp  %o5, %o3
 6000814:	08 bf ff fe 	bleu  600080c <not_really_big>
 6000818:	98 83 20 01 	inccc  %o4
 600081c:	02 80 00 65 	be  60009b0 <got_result>
 6000820:	98 23 20 01 	dec  %o4
 6000824:	80 92 c0 00 	tst  %o3

06000828 <divloop>:
 6000828:	95 2a a0 04 	sll  %o2, 4, %o2
 600082c:	06 80 00 2f 	bl  60008e8 <L1.16>
 6000830:	9b 33 60 01 	srl  %o5, 1, %o5
 6000834:	96 a2 c0 0d 	subcc  %o3, %o5, %o3
 6000838:	06 80 00 17 	bl  6000894 <L2.17>
 600083c:	9b 33 60 01 	srl  %o5, 1, %o5
 6000840:	96 a2 c0 0d 	subcc  %o3, %o5, %o3
 6000844:	06 80 00 0b 	bl  6000870 <L3.19>
 6000848:	9b 33 60 01 	srl  %o5, 1, %o5
 600084c:	96 a2 c0 0d 	subcc  %o3, %o5, %o3
 6000850:	06 80 00 05 	bl  6000864 <L4.23>
 6000854:	9b 33 60 01 	srl  %o5, 1, %o5
 6000858:	96 a2 c0 0d 	subcc  %o3, %o5, %o3
 600085c:	10 80 00 50 	b  600099c <end_regular_divide>
 6000860:	94 02 a0 0f 	add  %o2, 0xf, %o2

06000864 <L4.23>:
 6000864:	96 82 c0 0d 	addcc  %o3, %o5, %o3
 6000868:	10 80 00 4d 	b  600099c <end_regular_divide>
 600086c:	94 02 a0 0d 	add  %o2, 0xd, %o2

06000870 <L3.19>:
 6000870:	96 82 c0 0d 	addcc  %o3, %o5, %o3
 6000874:	06 80 00 05 	bl  6000888 <L4.21>
 6000878:	9b 33 60 01 	srl  %o5, 1, %o5
 600087c:	96 a2 c0 0d 	subcc  %o3, %o5, %o3
 6000880:	10 80 00 47 	b  600099c <end_regular_divide>
 6000884:	94 02 a0 0b 	add  %o2, 0xb, %o2

06000888 <L4.21>:
 6000888:	96 82 c0 0d 	addcc  %o3, %o5, %o3
 600088c:	10 80 00 44 	b  600099c <end_regular_divide>
 6000890:	94 02 a0 09 	add  %o2, 9, %o2

06000894 <L2.17>:
 6000894:	96 82 c0 0d 	addcc  %o3, %o5, %o3
 6000898:	06 80 00 0b 	bl  60008c4 <L3.17>
 600089c:	9b 33 60 01 	srl  %o5, 1, %o5
 60008a0:	96 a2 c0 0d 	subcc  %o3, %o5, %o3
 60008a4:	06 80 00 05 	bl  60008b8 <L4.19>
 60008a8:	9b 33 60 01 	srl  %o5, 1, %o5
 60008ac:	96 a2 c0 0d 	subcc  %o3, %o5, %o3
 60008b0:	10 80 00 3b 	b  600099c <end_regular_divide>
 60008b4:	94 02 a0 07 	add  %o2, 7, %o2

060008b8 <L4.19>:
 60008b8:	96 82 c0 0d 	addcc  %o3, %o5, %o3
 60008bc:	10 80 00 38 	b  600099c <end_regular_divide>
 60008c0:	94 02 a0 05 	add  %o2, 5, %o2

060008c4 <L3.17>:
 60008c4:	96 82 c0 0d 	addcc  %o3, %o5, %o3
 60008c8:	06 80 00 05 	bl  60008dc <L4.17>
 60008cc:	9b 33 60 01 	srl  %o5, 1, %o5
 60008d0:	96 a2 c0 0d 	subcc  %o3, %o5, %o3
 60008d4:	10 80 00 32 	b  600099c <end_regular_divide>
 60008d8:	94 02 a0 03 	add  %o2, 3, %o2

060008dc <L4.17>:
 60008dc:	96 82 c0 0d 	addcc  %o3, %o5, %o3
 60008e0:	10 80 00 2f 	b  600099c <end_regular_divide>
 60008e4:	94 02 a0 01 	inc  %o2

060008e8 <L1.16>:
 60008e8:	96 82 c0 0d 	addcc  %o3, %o5, %o3
 60008ec:	06 80 00 17 	bl  6000948 <L2.15>
 60008f0:	9b 33 60 01 	srl  %o5, 1, %o5
 60008f4:	96 a2 c0 0d 	subcc  %o3, %o5, %o3
 60008f8:	06 80 00 0b 	bl  6000924 <L3.15>
 60008fc:	9b 33 60 01 	srl  %o5, 1, %o5
 6000900:	96 a2 c0 0d 	subcc  %o3, %o5, %o3
 6000904:	06 80 00 05 	bl  6000918 <L4.15>
 6000908:	9b 33 60 01 	srl  %o5, 1, %o5
 600090c:	96 a2 c0 0d 	subcc  %o3, %o5, %o3
 6000910:	10 80 00 23 	b  600099c <end_regular_divide>
 6000914:	94 02 bf ff 	add  %o2, -1, %o2

06000918 <L4.15>:
 6000918:	96 82 c0 0d 	addcc  %o3, %o5, %o3
 600091c:	10 80 00 20 	b  600099c <end_regular_divide>
 6000920:	94 02 bf fd 	add  %o2, -3, %o2

06000924 <L3.15>:
 6000924:	96 82 c0 0d 	addcc  %o3, %o5, %o3
 6000928:	06 80 00 05 	bl  600093c <L4.13>
 600092c:	9b 33 60 01 	srl  %o5, 1, %o5
 6000930:	96 a2 c0 0d 	subcc  %o3, %o5, %o3
 6000934:	10 80 00 1a 	b  600099c <end_regular_divide>
 6000938:	94 02 bf fb 	add  %o2, -5, %o2

0600093c <L4.13>:
 600093c:	96 82 c0 0d 	addcc  %o3, %o5, %o3
 6000940:	10 80 00 17 	b  600099c <end_regular_divide>
 6000944:	94 02 bf f9 	add  %o2, -7, %o2

06000948 <L2.15>:
 6000948:	96 82 c0 0d 	addcc  %o3, %o5, %o3
 600094c:	06 80 00 0b 	bl  6000978 <L3.13>
 6000950:	9b 33 60 01 	srl  %o5, 1, %o5
 6000954:	96 a2 c0 0d 	subcc  %o3, %o5, %o3
 6000958:	06 80 00 05 	bl  600096c <L4.11>
 600095c:	9b 33 60 01 	srl  %o5, 1, %o5
 6000960:	96 a2 c0 0d 	subcc  %o3, %o5, %o3
 6000964:	10 80 00 0e 	b  600099c <end_regular_divide>
 6000968:	94 02 bf f7 	add  %o2, -9, %o2

0600096c <L4.11>:
 600096c:	96 82 c0 0d 	addcc  %o3, %o5, %o3
 6000970:	10 80 00 0b 	b  600099c <end_regular_divide>
 6000974:	94 02 bf f5 	add  %o2, -11, %o2

06000978 <L3.13>:
 6000978:	96 82 c0 0d 	addcc  %o3, %o5, %o3
 600097c:	06 80 00 05 	bl  6000990 <L4.9>
 6000980:	9b 33 60 01 	srl  %o5, 1, %o5
 6000984:	96 a2 c0 0d 	subcc  %o3, %o5, %o3
 6000988:	10 80 00 05 	b  600099c <end_regular_divide>
 600098c:	94 02 bf f3 	add  %o2, -13, %o2

06000990 <L4.9>:
 6000990:	96 82 c0 0d 	addcc  %o3, %o5, %o3
 6000994:	10 80 00 02 	b  600099c <end_regular_divide>
 6000998:	94 02 bf f1 	add  %o2, -15, %o2

0600099c <end_regular_divide>:
 600099c:	98 a3 20 01 	deccc  %o4
 60009a0:	16 bf ff a2 	bge  6000828 <divloop>
 60009a4:	80 92 c0 00 	tst  %o3
 60009a8:	26 80 00 02 	bl,a   60009b0 <got_result>
 60009ac:	96 02 c0 09 	add  %o3, %o1, %o3

060009b0 <got_result>:
 60009b0:	80 90 c0 00 	tst  %g3
 60009b4:	26 80 00 02 	bl,a   60009bc <got_result+0xc>
 60009b8:	96 20 00 0b 	neg  %o3
 60009bc:	81 c3 e0 08 	retl 
 60009c0:	90 10 00 0b 	mov  %o3, %o0

060009c4 <Isr_Handler>:
 60009c4:	80 a2 20 05 	cmp  %o0, 5
 60009c8:	02 80 00 3b 	be  6000ab4 <Isr_Handler+0xf0>
 60009cc:	80 a2 20 06 	cmp  %o0, 6
 60009d0:	02 80 00 24 	be  6000a60 <Isr_Handler+0x9c>
 60009d4:	80 a2 20 04 	cmp  %o0, 4
 60009d8:	02 80 00 09 	be  60009fc <Isr_Handler+0x38>
 60009dc:	05 03 40 00 	sethi  %hi(0xd000000), %g2
 60009e0:	82 10 20 01 	mov  1, %g1
 60009e4:	91 28 40 08 	sll  %g1, %o0, %o0
 60009e8:	03 02 00 00 	sethi  %hi(0x8000000), %g1
 60009ec:	82 10 62 0c 	or  %g1, 0x20c, %g1	! 800020c <text_end+0x1ff8d4c>
 60009f0:	d0 20 40 00 	st  %o0, [ %g1 ]
 60009f4:	81 c3 e0 08 	retl 
 60009f8:	01 00 00 00 	nop 
 60009fc:	03 03 40 02 	sethi  %hi(0xd000800), %g1
 6000a00:	c2 00 61 5c 	ld  [ %g1 + 0x15c ], %g1	! d00095c <pUsbDevReg>
 6000a04:	c6 00 40 00 	ld  [ %g1 ], %g3
 6000a08:	c6 20 a0 c0 	st  %g3, [ %g2 + 0xc0 ]
 6000a0c:	c6 00 60 08 	ld  [ %g1 + 8 ], %g3
 6000a10:	c8 00 a0 c0 	ld  [ %g2 + 0xc0 ], %g4
 6000a14:	80 89 00 03 	btst  %g4, %g3
 6000a18:	22 bf ff f3 	be,a   60009e4 <Isr_Handler+0x20>
 6000a1c:	82 10 20 01 	mov  1, %g1
 6000a20:	c4 00 a0 c0 	ld  [ %g2 + 0xc0 ], %g2
 6000a24:	c4 20 40 00 	st  %g2, [ %g1 ]
 6000a28:	03 03 40 00 	sethi  %hi(0xd000000), %g1
 6000a2c:	d0 20 60 94 	st  %o0, [ %g1 + 0x94 ]	! d000094 <usb_irq_flag>
 6000a30:	03 02 00 00 	sethi  %hi(0x8000000), %g1
 6000a34:	82 10 62 40 	or  %g1, 0x240, %g1	! 8000240 <text_end+0x1ff8d80>
 6000a38:	c4 00 40 00 	ld  [ %g1 ], %g2
 6000a3c:	84 08 bf 8f 	and  %g2, -113, %g2
 6000a40:	c4 20 40 00 	st  %g2, [ %g1 ]
 6000a44:	82 10 20 01 	mov  1, %g1
 6000a48:	91 28 40 08 	sll  %g1, %o0, %o0
 6000a4c:	03 02 00 00 	sethi  %hi(0x8000000), %g1
 6000a50:	82 10 62 0c 	or  %g1, 0x20c, %g1	! 800020c <text_end+0x1ff8d4c>
 6000a54:	d0 20 40 00 	st  %o0, [ %g1 ]
 6000a58:	81 c3 e0 08 	retl 
 6000a5c:	01 00 00 00 	nop 
 6000a60:	05 03 40 00 	sethi  %hi(0xd000000), %g2
 6000a64:	03 03 40 00 	sethi  %hi(0xd000000), %g1
 6000a68:	c2 00 60 b8 	ld  [ %g1 + 0xb8 ], %g1	! d0000b8 <pUsbCptReg>
 6000a6c:	c6 00 62 18 	ld  [ %g1 + 0x218 ], %g3
 6000a70:	c6 20 a0 c0 	st  %g3, [ %g2 + 0xc0 ]
 6000a74:	c4 00 a0 c0 	ld  [ %g2 + 0xc0 ], %g2
 6000a78:	c4 20 62 18 	st  %g2, [ %g1 + 0x218 ]
 6000a7c:	03 03 40 00 	sethi  %hi(0xd000000), %g1
 6000a80:	c2 00 60 bc 	ld  [ %g1 + 0xbc ], %g1	! d0000bc <epOutMask>
 6000a84:	80 a0 60 01 	cmp  %g1, 1
 6000a88:	32 bf ff d7 	bne,a   60009e4 <Isr_Handler+0x20>
 6000a8c:	82 10 20 01 	mov  1, %g1
 6000a90:	05 03 40 00 	sethi  %hi(0xd000000), %g2
 6000a94:	03 02 00 00 	sethi  %hi(0x8000000), %g1
 6000a98:	82 10 62 40 	or  %g1, 0x240, %g1	! 8000240 <text_end+0x1ff8d80>
 6000a9c:	d0 20 a0 94 	st  %o0, [ %g2 + 0x94 ]
 6000aa0:	c4 00 40 00 	ld  [ %g1 ], %g2
 6000aa4:	84 08 bf 8f 	and  %g2, -113, %g2
 6000aa8:	c4 20 40 00 	st  %g2, [ %g1 ]
 6000aac:	10 bf ff ce 	b  60009e4 <Isr_Handler+0x20>
 6000ab0:	82 10 20 01 	mov  1, %g1
 6000ab4:	07 03 40 00 	sethi  %hi(0xd000000), %g3
 6000ab8:	03 03 40 00 	sethi  %hi(0xd000000), %g1
 6000abc:	c2 00 60 10 	ld  [ %g1 + 0x10 ], %g1	! d000010 <nfcReg>
 6000ac0:	c4 00 60 10 	ld  [ %g1 + 0x10 ], %g2
 6000ac4:	c4 20 e0 0c 	st  %g2, [ %g3 + 0xc ]
 6000ac8:	05 02 00 00 	sethi  %hi(0x8000000), %g2
 6000acc:	84 10 a2 40 	or  %g2, 0x240, %g2	! 8000240 <text_end+0x1ff8d80>
 6000ad0:	c8 00 60 10 	ld  [ %g1 + 0x10 ], %g4
 6000ad4:	c6 00 e0 0c 	ld  [ %g3 + 0xc ], %g3
 6000ad8:	86 10 c0 04 	or  %g3, %g4, %g3
 6000adc:	c6 20 60 10 	st  %g3, [ %g1 + 0x10 ]
 6000ae0:	03 03 40 00 	sethi  %hi(0xd000000), %g1
 6000ae4:	d0 20 60 94 	st  %o0, [ %g1 + 0x94 ]	! d000094 <usb_irq_flag>
 6000ae8:	c2 00 80 00 	ld  [ %g2 ], %g1
 6000aec:	82 08 7f 8f 	and  %g1, -113, %g1
 6000af0:	c2 20 80 00 	st  %g1, [ %g2 ]
 6000af4:	82 10 20 01 	mov  1, %g1
 6000af8:	91 28 40 08 	sll  %g1, %o0, %o0
 6000afc:	03 02 00 00 	sethi  %hi(0x8000000), %g1
 6000b00:	82 10 62 0c 	or  %g1, 0x20c, %g1	! 800020c <text_end+0x1ff8d4c>
 6000b04:	d0 20 40 00 	st  %o0, [ %g1 ]
 6000b08:	81 c3 e0 08 	retl 
 6000b0c:	01 00 00 00 	nop 

06000b10 <main>:
 6000b10:	9d e3 bf a0 	save  %sp, -96, %sp
 6000b14:	07 24 00 00 	sethi  %hi(0x90000000), %g3
 6000b18:	03 02 00 01 	sethi  %hi(0x8000400), %g1
 6000b1c:	84 10 61 20 	or  %g1, 0x120, %g2	! 8000520 <text_end+0x1ff9060>
 6000b20:	82 10 61 24 	or  %g1, 0x124, %g1
 6000b24:	88 10 21 c6 	mov  0x1c6, %g4
 6000b28:	c8 20 c0 00 	st  %g4, [ %g3 ]
 6000b2c:	86 10 23 87 	mov  0x387, %g3
 6000b30:	c6 20 80 00 	st  %g3, [ %g2 ]
 6000b34:	05 00 00 3f 	sethi  %hi(0xfc00), %g2
 6000b38:	84 10 a3 ff 	or  %g2, 0x3ff, %g2	! ffff <RAM_LENGTH+0x8fff>
 6000b3c:	c4 20 40 00 	st  %g2, [ %g1 ]
 6000b40:	03 04 80 00 	sethi  %hi(0x12000000), %g1
 6000b44:	05 17 01 00 	sethi  %hi(0x5c040000), %g2
 6000b48:	84 10 a2 ff 	or  %g2, 0x2ff, %g2	! 5c0402ff <RAM_END+0x4f0392ff>
 6000b4c:	c4 20 40 00 	st  %g2, [ %g1 ]
 6000b50:	40 00 00 3d 	call  6000c44 <eflash_init>
 6000b54:	01 00 00 00 	nop 
 6000b58:	92 10 20 05 	mov  5, %o1	! 5 <data_start+0x5>
 6000b5c:	40 00 10 87 	call  6004d78 <NFC_Flash_Init>
 6000b60:	90 10 20 01 	mov  1, %o0
 6000b64:	40 00 19 2c 	call  6007014 <usb_init>
 6000b68:	01 00 00 00 	nop 
 6000b6c:	03 02 00 00 	sethi  %hi(0x8000000), %g1
 6000b70:	a4 10 62 40 	or  %g1, 0x240, %l2	! 8000240 <text_end+0x1ff8d80>
 6000b74:	82 10 62 18 	or  %g1, 0x218, %g1
 6000b78:	84 10 20 70 	mov  0x70, %g2
 6000b7c:	c4 24 80 00 	st  %g2, [ %l2 ]
 6000b80:	84 10 20 01 	mov  1, %g2
 6000b84:	c4 20 40 00 	st  %g2, [ %g1 ]
 6000b88:	21 03 40 00 	sethi  %hi(0xd000000), %l0
 6000b8c:	27 03 40 00 	sethi  %hi(0xd000000), %l3
 6000b90:	a0 14 20 94 	or  %l0, 0x94, %l0
 6000b94:	a6 14 e0 c0 	or  %l3, 0xc0, %l3
 6000b98:	a2 10 00 10 	mov  %l0, %l1
 6000b9c:	c2 04 00 00 	ld  [ %l0 ], %g1
 6000ba0:	80 a0 60 00 	cmp  %g1, 0
 6000ba4:	02 bf ff fe 	be  6000b9c <main+0x8c>
 6000ba8:	01 00 00 00 	nop 
 6000bac:	c2 04 40 00 	ld  [ %l1 ], %g1
 6000bb0:	80 a0 60 06 	cmp  %g1, 6
 6000bb4:	02 80 00 17 	be  6000c10 <main+0x100>
 6000bb8:	01 00 00 00 	nop 
 6000bbc:	c2 04 40 00 	ld  [ %l1 ], %g1
 6000bc0:	80 a0 60 04 	cmp  %g1, 4
 6000bc4:	02 80 00 1a 	be  6000c2c <main+0x11c>
 6000bc8:	01 00 00 00 	nop 
 6000bcc:	c2 04 40 00 	ld  [ %l1 ], %g1
 6000bd0:	80 a0 60 05 	cmp  %g1, 5
 6000bd4:	02 80 00 19 	be  6000c38 <main+0x128>
 6000bd8:	01 00 00 00 	nop 
 6000bdc:	c0 24 c0 00 	clr  [ %l3 ]
 6000be0:	c0 24 00 00 	clr  [ %l0 ]
 6000be4:	c2 04 80 00 	ld  [ %l2 ], %g1
 6000be8:	82 10 60 70 	or  %g1, 0x70, %g1
 6000bec:	c2 24 80 00 	st  %g1, [ %l2 ]
 6000bf0:	c2 04 00 00 	ld  [ %l0 ], %g1
 6000bf4:	80 a0 60 00 	cmp  %g1, 0
 6000bf8:	02 bf ff e9 	be  6000b9c <main+0x8c>
 6000bfc:	01 00 00 00 	nop 
 6000c00:	c2 04 40 00 	ld  [ %l1 ], %g1
 6000c04:	80 a0 60 06 	cmp  %g1, 6
 6000c08:	12 bf ff ed 	bne  6000bbc <main+0xac>
 6000c0c:	01 00 00 00 	nop 
 6000c10:	c2 04 c0 00 	ld  [ %l3 ], %g1
 6000c14:	80 88 60 04 	btst  4, %g1
 6000c18:	02 bf ff f1 	be  6000bdc <main+0xcc>
 6000c1c:	01 00 00 00 	nop 
 6000c20:	40 00 17 f0 	call  6006be0 <usb_bk_out>
 6000c24:	01 00 00 00 	nop 
 6000c28:	30 bf ff ed 	b,a   6000bdc <main+0xcc>
 6000c2c:	40 00 18 7a 	call  6006e14 <usb_dev_dsr>
 6000c30:	01 00 00 00 	nop 
 6000c34:	30 bf ff ea 	b,a   6000bdc <main+0xcc>
 6000c38:	40 00 0f da 	call  6004ba0 <NFC_handler>
 6000c3c:	01 00 00 00 	nop 
 6000c40:	30 bf ff e7 	b,a   6000bdc <main+0xcc>

06000c44 <eflash_init>:
 6000c44:	9d e3 bf a0 	save  %sp, -96, %sp
 6000c48:	03 02 00 02 	sethi  %hi(0x8000800), %g1
 6000c4c:	88 10 62 00 	or  %g1, 0x200, %g4	! 8000a00 <text_end+0x1ff9540>
 6000c50:	86 10 62 04 	or  %g1, 0x204, %g3
 6000c54:	84 10 62 08 	or  %g1, 0x208, %g2
 6000c58:	1b 00 3e 43 	sethi  %hi(0xf90c00), %o5
 6000c5c:	82 10 62 0c 	or  %g1, 0x20c, %g1
 6000c60:	9a 13 60 07 	or  %o5, 7, %o5
 6000c64:	da 21 00 00 	st  %o5, [ %g4 ]
 6000c68:	09 00 2b 83 	sethi  %hi(0xae0c00), %g4
 6000c6c:	88 11 21 ab 	or  %g4, 0x1ab, %g4	! ae0dab <RAM_LENGTH+0xad9dab>
 6000c70:	c8 20 c0 00 	st  %g4, [ %g3 ]
 6000c74:	07 00 57 40 	sethi  %hi(0x15d0000), %g3
 6000c78:	86 10 e0 ae 	or  %g3, 0xae, %g3	! 15d00ae <RAM_LENGTH+0x15c90ae>
 6000c7c:	c6 20 80 00 	st  %g3, [ %g2 ]
 6000c80:	05 00 88 00 	sethi  %hi(0x2200000), %g2
 6000c84:	84 10 a2 bb 	or  %g2, 0x2bb, %g2	! 22002bb <RAM_LENGTH+0x21f92bb>
 6000c88:	c4 20 40 00 	st  %g2, [ %g1 ]
 6000c8c:	81 c7 e0 08 	ret 
 6000c90:	81 e8 00 00 	restore 

06000c94 <memcpy32>:
 6000c94:	80 a2 a0 00 	cmp  %o2, 0
 6000c98:	04 80 00 09 	ble  6000cbc <memcpy32+0x28>
 6000c9c:	82 10 20 00 	clr  %g1
 6000ca0:	84 10 20 00 	clr  %g2
 6000ca4:	c6 02 40 01 	ld  [ %o1 + %g1 ], %g3
 6000ca8:	c6 22 00 01 	st  %g3, [ %o0 + %g1 ]
 6000cac:	84 00 a0 01 	inc  %g2
 6000cb0:	80 a0 80 0a 	cmp  %g2, %o2
 6000cb4:	12 bf ff fc 	bne  6000ca4 <memcpy32+0x10>
 6000cb8:	82 00 60 04 	add  %g1, 4, %g1
 6000cbc:	81 c3 e0 08 	retl 
 6000cc0:	01 00 00 00 	nop 

06000cc4 <memcpy8>:
 6000cc4:	80 a2 a0 00 	cmp  %o2, 0
 6000cc8:	04 80 00 08 	ble  6000ce8 <memcpy8+0x24>
 6000ccc:	82 10 20 00 	clr  %g1
 6000cd0:	c4 0a 40 01 	ldub  [ %o1 + %g1 ], %g2
 6000cd4:	c4 2a 00 01 	stb  %g2, [ %o0 + %g1 ]
 6000cd8:	82 00 60 01 	inc  %g1
 6000cdc:	80 a0 40 0a 	cmp  %g1, %o2
 6000ce0:	32 bf ff fd 	bne,a   6000cd4 <memcpy8+0x10>
 6000ce4:	c4 0a 40 01 	ldub  [ %o1 + %g1 ], %g2
 6000ce8:	81 c3 e0 08 	retl 
 6000cec:	01 00 00 00 	nop 

06000cf0 <memcpy8_r>:
 6000cf0:	80 a2 a0 00 	cmp  %o2, 0
 6000cf4:	04 80 00 09 	ble  6000d18 <memcpy8_r+0x28>
 6000cf8:	90 02 00 0a 	add  %o0, %o2, %o0
 6000cfc:	82 10 20 00 	clr  %g1
 6000d00:	c4 0a 40 01 	ldub  [ %o1 + %g1 ], %g2
 6000d04:	82 00 60 01 	inc  %g1
 6000d08:	80 a0 40 0a 	cmp  %g1, %o2
 6000d0c:	c4 2a 3f ff 	stb  %g2, [ %o0 + -1 ]
 6000d10:	12 bf ff fc 	bne  6000d00 <memcpy8_r+0x10>
 6000d14:	90 02 3f ff 	add  %o0, -1, %o0
 6000d18:	81 c3 e0 08 	retl 
 6000d1c:	01 00 00 00 	nop 

06000d20 <memcpy32_r>:
 6000d20:	82 82 bf ff 	addcc  %o2, -1, %g1
 6000d24:	0c 80 00 0b 	bneg  6000d50 <memcpy32_r+0x30>
 6000d28:	83 28 60 02 	sll  %g1, 2, %g1
 6000d2c:	90 02 00 01 	add  %o0, %g1, %o0
 6000d30:	82 10 20 00 	clr  %g1
 6000d34:	85 28 60 02 	sll  %g1, 2, %g2
 6000d38:	c4 02 40 02 	ld  [ %o1 + %g2 ], %g2
 6000d3c:	c4 22 00 00 	st  %g2, [ %o0 ]
 6000d40:	82 00 60 01 	inc  %g1
 6000d44:	80 a0 40 0a 	cmp  %g1, %o2
 6000d48:	12 bf ff fb 	bne  6000d34 <memcpy32_r+0x14>
 6000d4c:	90 02 3f fc 	add  %o0, -4, %o0
 6000d50:	81 c3 e0 08 	retl 
 6000d54:	01 00 00 00 	nop 

06000d58 <memset8>:
 6000d58:	80 a2 a0 00 	cmp  %o2, 0
 6000d5c:	04 80 00 07 	ble  6000d78 <memset8+0x20>
 6000d60:	82 10 20 00 	clr  %g1
 6000d64:	d2 2a 00 01 	stb  %o1, [ %o0 + %g1 ]
 6000d68:	82 00 60 01 	inc  %g1
 6000d6c:	80 a0 40 0a 	cmp  %g1, %o2
 6000d70:	32 bf ff fe 	bne,a   6000d68 <memset8+0x10>
 6000d74:	d2 2a 00 01 	stb  %o1, [ %o0 + %g1 ]
 6000d78:	81 c3 e0 08 	retl 
 6000d7c:	01 00 00 00 	nop 

06000d80 <memset32>:
 6000d80:	80 a2 a0 00 	cmp  %o2, 0
 6000d84:	04 80 00 07 	ble  6000da0 <memset32+0x20>
 6000d88:	82 10 20 00 	clr  %g1
 6000d8c:	d2 22 00 00 	st  %o1, [ %o0 ]
 6000d90:	82 00 60 01 	inc  %g1
 6000d94:	80 a0 40 0a 	cmp  %g1, %o2
 6000d98:	12 bf ff fd 	bne  6000d8c <memset32+0xc>
 6000d9c:	90 02 20 04 	add  %o0, 4, %o0
 6000da0:	81 c3 e0 08 	retl 
 6000da4:	01 00 00 00 	nop 

06000da8 <memcmp32>:
 6000da8:	80 a2 a0 00 	cmp  %o2, 0
 6000dac:	04 80 00 12 	ble  6000df4 <memcmp32+0x4c>
 6000db0:	01 00 00 00 	nop 
 6000db4:	c2 02 40 00 	ld  [ %o1 ], %g1
 6000db8:	c4 02 00 00 	ld  [ %o0 ], %g2
 6000dbc:	80 a0 80 01 	cmp  %g2, %g1
 6000dc0:	02 80 00 09 	be  6000de4 <memcmp32+0x3c>
 6000dc4:	82 10 20 00 	clr  %g1
 6000dc8:	81 c3 e0 08 	retl 
 6000dcc:	90 10 3f ff 	mov  -1, %o0
 6000dd0:	c6 02 40 02 	ld  [ %o1 + %g2 ], %g3
 6000dd4:	c4 02 00 02 	ld  [ %o0 + %g2 ], %g2
 6000dd8:	80 a0 80 03 	cmp  %g2, %g3
 6000ddc:	32 80 00 08 	bne,a   6000dfc <memcmp32+0x54>
 6000de0:	90 10 3f ff 	mov  -1, %o0
 6000de4:	82 00 60 01 	inc  %g1
 6000de8:	80 a2 80 01 	cmp  %o2, %g1
 6000dec:	14 bf ff f9 	bg  6000dd0 <memcmp32+0x28>
 6000df0:	85 28 60 02 	sll  %g1, 2, %g2
 6000df4:	81 c3 e0 08 	retl 
 6000df8:	90 10 20 00 	clr  %o0
 6000dfc:	81 c3 e0 08 	retl 
 6000e00:	01 00 00 00 	nop 

06000e04 <memcmp8>:
 6000e04:	80 a2 a0 00 	cmp  %o2, 0
 6000e08:	04 80 00 11 	ble  6000e4c <memcmp8+0x48>
 6000e0c:	01 00 00 00 	nop 
 6000e10:	c2 0a 40 00 	ldub  [ %o1 ], %g1
 6000e14:	c4 0a 00 00 	ldub  [ %o0 ], %g2
 6000e18:	80 a0 80 01 	cmp  %g2, %g1
 6000e1c:	02 80 00 08 	be  6000e3c <memcmp8+0x38>
 6000e20:	82 10 20 00 	clr  %g1
 6000e24:	81 c3 e0 08 	retl 
 6000e28:	90 10 3f ff 	mov  -1, %o0
 6000e2c:	c4 0a 40 01 	ldub  [ %o1 + %g1 ], %g2
 6000e30:	80 a0 c0 02 	cmp  %g3, %g2
 6000e34:	32 80 00 08 	bne,a   6000e54 <memcmp8+0x50>
 6000e38:	90 10 3f ff 	mov  -1, %o0
 6000e3c:	82 00 60 01 	inc  %g1
 6000e40:	80 a2 80 01 	cmp  %o2, %g1
 6000e44:	34 bf ff fa 	bg,a   6000e2c <memcmp8+0x28>
 6000e48:	c6 0a 00 01 	ldub  [ %o0 + %g1 ], %g3
 6000e4c:	81 c3 e0 08 	retl 
 6000e50:	90 10 20 00 	clr  %o0
 6000e54:	81 c3 e0 08 	retl 
 6000e58:	01 00 00 00 	nop 

06000e5c <htonl>:
 6000e5c:	05 00 00 3f 	sethi  %hi(0xfc00), %g2
 6000e60:	84 10 a3 00 	or  %g2, 0x300, %g2	! ff00 <RAM_LENGTH+0x8f00>
 6000e64:	84 0a 00 02 	and  %o0, %g2, %g2
 6000e68:	85 28 a0 08 	sll  %g2, 8, %g2
 6000e6c:	87 32 20 18 	srl  %o0, 0x18, %g3
 6000e70:	83 2a 20 18 	sll  %o0, 0x18, %g1
 6000e74:	82 10 c0 01 	or  %g3, %g1, %g1
 6000e78:	82 10 40 02 	or  %g1, %g2, %g1
 6000e7c:	05 00 3f c0 	sethi  %hi(0xff0000), %g2
 6000e80:	90 0a 00 02 	and  %o0, %g2, %o0
 6000e84:	91 32 20 08 	srl  %o0, 8, %o0
 6000e88:	81 c3 e0 08 	retl 
 6000e8c:	90 10 40 08 	or  %g1, %o0, %o0

06000e90 <memcpy32htonl>:
 6000e90:	9d e3 bf a0 	save  %sp, -96, %sp
 6000e94:	80 a6 a0 00 	cmp  %i2, 0
 6000e98:	04 80 00 15 	ble  6000eec <memcpy32htonl+0x5c>
 6000e9c:	15 00 00 3f 	sethi  %hi(0xfc00), %o2
 6000ea0:	84 10 20 00 	clr  %g2
 6000ea4:	94 12 a3 00 	or  %o2, 0x300, %o2
 6000ea8:	86 10 20 00 	clr  %g3
 6000eac:	17 00 3f c0 	sethi  %hi(0xff0000), %o3
 6000eb0:	c2 06 40 02 	ld  [ %i1 + %g2 ], %g1
 6000eb4:	88 08 40 0b 	and  %g1, %o3, %g4
 6000eb8:	99 30 60 18 	srl  %g1, 0x18, %o4
 6000ebc:	9b 28 60 18 	sll  %g1, 0x18, %o5
 6000ec0:	89 31 20 08 	srl  %g4, 8, %g4
 6000ec4:	9a 13 00 0d 	or  %o4, %o5, %o5
 6000ec8:	82 08 40 0a 	and  %g1, %o2, %g1
 6000ecc:	83 28 60 08 	sll  %g1, 8, %g1
 6000ed0:	82 13 40 01 	or  %o5, %g1, %g1
 6000ed4:	82 10 40 04 	or  %g1, %g4, %g1
 6000ed8:	c2 26 00 02 	st  %g1, [ %i0 + %g2 ]
 6000edc:	86 00 e0 01 	inc  %g3
 6000ee0:	80 a0 c0 1a 	cmp  %g3, %i2
 6000ee4:	12 bf ff f3 	bne  6000eb0 <memcpy32htonl+0x20>
 6000ee8:	84 00 a0 04 	add  %g2, 4, %g2
 6000eec:	81 c7 e0 08 	ret 
 6000ef0:	81 e8 00 00 	restore 

06000ef4 <memcpy32htonl_r>:
 6000ef4:	9d e3 bf a0 	save  %sp, -96, %sp
 6000ef8:	82 86 bf ff 	addcc  %i2, -1, %g1
 6000efc:	0c 80 00 17 	bneg  6000f58 <memcpy32htonl_r+0x64>
 6000f00:	83 28 60 02 	sll  %g1, 2, %g1
 6000f04:	17 00 00 3f 	sethi  %hi(0xfc00), %o3
 6000f08:	b0 06 00 01 	add  %i0, %g1, %i0
 6000f0c:	96 12 e3 00 	or  %o3, 0x300, %o3
 6000f10:	84 10 20 00 	clr  %g2
 6000f14:	19 00 3f c0 	sethi  %hi(0xff0000), %o4
 6000f18:	83 28 a0 02 	sll  %g2, 2, %g1
 6000f1c:	c2 06 40 01 	ld  [ %i1 + %g1 ], %g1
 6000f20:	86 08 40 0c 	and  %g1, %o4, %g3
 6000f24:	9b 30 60 18 	srl  %g1, 0x18, %o5
 6000f28:	89 28 60 18 	sll  %g1, 0x18, %g4
 6000f2c:	87 30 e0 08 	srl  %g3, 8, %g3
 6000f30:	88 13 40 04 	or  %o5, %g4, %g4
 6000f34:	82 08 40 0b 	and  %g1, %o3, %g1
 6000f38:	83 28 60 08 	sll  %g1, 8, %g1
 6000f3c:	82 11 00 01 	or  %g4, %g1, %g1
 6000f40:	82 10 40 03 	or  %g1, %g3, %g1
 6000f44:	c2 26 00 00 	st  %g1, [ %i0 ]
 6000f48:	84 00 a0 01 	inc  %g2
 6000f4c:	80 a0 80 1a 	cmp  %g2, %i2
 6000f50:	12 bf ff f2 	bne  6000f18 <memcpy32htonl_r+0x24>
 6000f54:	b0 06 3f fc 	add  %i0, -4, %i0
 6000f58:	81 c7 e0 08 	ret 
 6000f5c:	81 e8 00 00 	restore 

06000f60 <read_uint32>:
 6000f60:	c8 0a 00 09 	ldub  [ %o0 + %o1 ], %g4
 6000f64:	90 02 00 09 	add  %o0, %o1, %o0
 6000f68:	c2 0a 20 02 	ldub  [ %o0 + 2 ], %g1
 6000f6c:	c6 0a 20 03 	ldub  [ %o0 + 3 ], %g3
 6000f70:	c4 0a 20 01 	ldub  [ %o0 + 1 ], %g2
 6000f74:	85 28 a0 10 	sll  %g2, 0x10, %g2
 6000f78:	91 29 20 18 	sll  %g4, 0x18, %o0
 6000f7c:	83 28 60 08 	sll  %g1, 8, %g1
 6000f80:	90 10 c0 08 	or  %g3, %o0, %o0
 6000f84:	90 12 00 02 	or  %o0, %g2, %o0
 6000f88:	81 c3 e0 08 	retl 
 6000f8c:	90 12 00 01 	or  %o0, %g1, %o0

06000f90 <write_uint64>:
 6000f90:	9d e3 bf a0 	save  %sp, -96, %sp
 6000f94:	05 00 00 3f 	sethi  %hi(0xfc00), %g2
 6000f98:	84 10 a3 00 	or  %g2, 0x300, %g2	! ff00 <RAM_LENGTH+0x8f00>
 6000f9c:	84 0e 80 02 	and  %i2, %g2, %g2
 6000fa0:	93 36 a0 18 	srl  %i2, 0x18, %o1
 6000fa4:	97 38 a0 08 	sra  %g2, 8, %o3
 6000fa8:	84 10 20 ff 	mov  0xff, %g2
 6000fac:	82 06 00 19 	add  %i0, %i1, %g1
 6000fb0:	98 0e 80 02 	and  %i2, %g2, %o4
 6000fb4:	15 00 3f c0 	sethi  %hi(0xff0000), %o2
 6000fb8:	89 36 e0 18 	srl  %i3, 0x18, %g4
 6000fbc:	94 0e 80 0a 	and  %i2, %o2, %o2
 6000fc0:	87 36 e0 10 	srl  %i3, 0x10, %g3
 6000fc4:	95 3a a0 10 	sra  %o2, 0x10, %o2
 6000fc8:	85 36 e0 08 	srl  %i3, 8, %g2
 6000fcc:	d2 2e 00 19 	stb  %o1, [ %i0 + %i1 ]
 6000fd0:	f6 28 60 07 	stb  %i3, [ %g1 + 7 ]
 6000fd4:	d4 28 60 01 	stb  %o2, [ %g1 + 1 ]
 6000fd8:	d6 28 60 02 	stb  %o3, [ %g1 + 2 ]
 6000fdc:	d8 28 60 03 	stb  %o4, [ %g1 + 3 ]
 6000fe0:	c8 28 60 04 	stb  %g4, [ %g1 + 4 ]
 6000fe4:	c6 28 60 05 	stb  %g3, [ %g1 + 5 ]
 6000fe8:	c4 28 60 06 	stb  %g2, [ %g1 + 6 ]
 6000fec:	81 c7 e0 08 	ret 
 6000ff0:	81 e8 00 00 	restore 

06000ff4 <read_uint16>:
 6000ff4:	82 02 00 09 	add  %o0, %o1, %g1
 6000ff8:	d0 0a 00 09 	ldub  [ %o0 + %o1 ], %o0
 6000ffc:	c2 08 60 01 	ldub  [ %g1 + 1 ], %g1
 6001000:	91 2a 20 08 	sll  %o0, 8, %o0
 6001004:	81 c3 e0 08 	retl 
 6001008:	90 12 00 01 	or  %o0, %g1, %o0

0600100c <write_uint16>:
 600100c:	85 32 a0 08 	srl  %o2, 8, %g2
 6001010:	82 02 00 09 	add  %o0, %o1, %g1
 6001014:	c4 2a 00 09 	stb  %g2, [ %o0 + %o1 ]
 6001018:	81 c3 e0 08 	retl 
 600101c:	d4 28 60 01 	stb  %o2, [ %g1 + 1 ]

06001020 <write_uint32>:
 6001020:	89 32 a0 18 	srl  %o2, 0x18, %g4
 6001024:	82 02 00 09 	add  %o0, %o1, %g1
 6001028:	87 32 a0 10 	srl  %o2, 0x10, %g3
 600102c:	05 00 00 3f 	sethi  %hi(0xfc00), %g2
 6001030:	84 10 a3 00 	or  %g2, 0x300, %g2	! ff00 <RAM_LENGTH+0x8f00>
 6001034:	84 0a 80 02 	and  %o2, %g2, %g2
 6001038:	85 30 a0 08 	srl  %g2, 8, %g2
 600103c:	c8 2a 00 09 	stb  %g4, [ %o0 + %o1 ]
 6001040:	d4 28 60 03 	stb  %o2, [ %g1 + 3 ]
 6001044:	c6 28 60 01 	stb  %g3, [ %g1 + 1 ]
 6001048:	81 c3 e0 08 	retl 
 600104c:	c4 28 60 02 	stb  %g2, [ %g1 + 2 ]

06001050 <memmem>:
 6001050:	9d e3 bf a0 	save  %sp, -96, %sp
 6001054:	80 a6 e0 00 	cmp  %i3, 0
 6001058:	02 80 00 1e 	be  60010d0 <memmem+0x80>
 600105c:	9a 26 40 1b 	sub  %i1, %i3, %o5
 6001060:	9a 06 00 0d 	add  %i0, %o5, %o5
 6001064:	80 a6 00 0d 	cmp  %i0, %o5
 6001068:	18 80 00 22 	bgu  60010f0 <memmem+0xa0>
 600106c:	b6 06 ff ff 	add  %i3, -1, %i3
 6001070:	d8 0e 80 00 	ldub  [ %i2 ], %o4
 6001074:	c2 0e 00 00 	ldub  [ %i0 ], %g1
 6001078:	80 a0 40 0c 	cmp  %g1, %o4
 600107c:	12 80 00 17 	bne  60010d8 <memmem+0x88>
 6001080:	80 a6 e0 00 	cmp  %i3, 0
 6001084:	04 80 00 13 	ble  60010d0 <memmem+0x80>
 6001088:	88 06 20 01 	add  %i0, 1, %g4
 600108c:	c2 0e a0 01 	ldub  [ %i2 + 1 ], %g1
 6001090:	c4 0e 20 01 	ldub  [ %i0 + 1 ], %g2
 6001094:	80 a0 80 01 	cmp  %g2, %g1
 6001098:	02 80 00 09 	be  60010bc <memmem+0x6c>
 600109c:	82 10 20 00 	clr  %g1
 60010a0:	10 80 00 10 	b  60010e0 <memmem+0x90>
 60010a4:	80 a3 40 04 	cmp  %o5, %g4
 60010a8:	c6 08 e0 01 	ldub  [ %g3 + 1 ], %g3
 60010ac:	c4 08 a0 01 	ldub  [ %g2 + 1 ], %g2
 60010b0:	80 a0 c0 02 	cmp  %g3, %g2
 60010b4:	12 80 00 0b 	bne  60010e0 <memmem+0x90>
 60010b8:	80 a3 40 04 	cmp  %o5, %g4
 60010bc:	82 00 60 01 	inc  %g1
 60010c0:	86 06 00 01 	add  %i0, %g1, %g3
 60010c4:	80 a6 c0 01 	cmp  %i3, %g1
 60010c8:	14 bf ff f8 	bg  60010a8 <memmem+0x58>
 60010cc:	84 06 80 01 	add  %i2, %g1, %g2
 60010d0:	81 c7 e0 08 	ret 
 60010d4:	81 e8 00 00 	restore 
 60010d8:	88 06 20 01 	add  %i0, 1, %g4
 60010dc:	80 a3 40 04 	cmp  %o5, %g4
 60010e0:	0a 80 00 04 	bcs  60010f0 <memmem+0xa0>
 60010e4:	01 00 00 00 	nop 
 60010e8:	10 bf ff e3 	b  6001074 <memmem+0x24>
 60010ec:	b0 10 00 04 	mov  %g4, %i0
 60010f0:	81 c7 e0 08 	ret 
 60010f4:	91 e8 20 00 	restore  %g0, 0, %o0

060010f8 <memcpy>:
 60010f8:	80 a2 a0 00 	cmp  %o2, 0
 60010fc:	02 80 00 08 	be  600111c <memcpy+0x24>
 6001100:	82 10 20 00 	clr  %g1
 6001104:	c4 0a 40 01 	ldub  [ %o1 + %g1 ], %g2
 6001108:	c4 2a 00 01 	stb  %g2, [ %o0 + %g1 ]
 600110c:	82 00 60 01 	inc  %g1
 6001110:	80 a2 80 01 	cmp  %o2, %g1
 6001114:	38 bf ff fd 	bgu,a   6001108 <memcpy+0x10>
 6001118:	c4 0a 40 01 	ldub  [ %o1 + %g1 ], %g2
 600111c:	81 c3 e0 08 	retl 
 6001120:	01 00 00 00 	nop 

06001124 <memset>:
 6001124:	80 a2 a0 00 	cmp  %o2, 0
 6001128:	02 80 00 07 	be  6001144 <memset+0x20>
 600112c:	82 10 20 00 	clr  %g1
 6001130:	d2 2a 00 01 	stb  %o1, [ %o0 + %g1 ]
 6001134:	82 00 60 01 	inc  %g1
 6001138:	80 a2 80 01 	cmp  %o2, %g1
 600113c:	38 bf ff fe 	bgu,a   6001134 <memset+0x10>
 6001140:	d2 2a 00 01 	stb  %o1, [ %o0 + %g1 ]
 6001144:	81 c3 e0 08 	retl 
 6001148:	01 00 00 00 	nop 
 600114c:	06 00 38 4c 	unknown
 6001150:	06 00 38 b0 	unknown
 6001154:	06 00 38 88 	unknown
 6001158:	06 00 38 88 	unknown
 600115c:	06 00 38 4c 	unknown
 6001160:	06 00 38 d8 	unknown

06001164 <setMem>:
 6001164:	80 a2 60 00 	cmp  %o1, 0
 6001168:	02 80 00 06 	be  6001180 <setMem+0x1c>
 600116c:	90 02 00 09 	add  %o0, %o1, %o0
 6001170:	d4 2a 3f ff 	stb  %o2, [ %o0 + -1 ]
 6001174:	92 82 7f ff 	addcc  %o1, -1, %o1
 6001178:	12 bf ff fe 	bne  6001170 <setMem+0xc>
 600117c:	90 02 3f ff 	add  %o0, -1, %o0
 6001180:	81 c3 e0 08 	retl 
 6001184:	01 00 00 00 	nop 

06001188 <NFC_FMICFF_read>:
 6001188:	03 03 40 00 	sethi  %hi(0xd000000), %g1
 600118c:	c4 00 60 10 	ld  [ %g1 + 0x10 ], %g2	! d000010 <nfcReg>
 6001190:	c2 00 a0 90 	ld  [ %g2 + 0x90 ], %g1
 6001194:	83 30 60 10 	srl  %g1, 0x10, %g1
 6001198:	80 a0 60 00 	cmp  %g1, 0
 600119c:	02 bf ff fd 	be  6001190 <NFC_FMICFF_read+0x8>
 60011a0:	03 03 40 00 	sethi  %hi(0xd000000), %g1
 60011a4:	c2 00 60 04 	ld  [ %g1 + 4 ], %g1	! d000004 <NFC_FMICFFRD>
 60011a8:	c0 20 40 00 	clr  [ %g1 ]
 60011ac:	d0 00 40 00 	ld  [ %g1 ], %o0
 60011b0:	81 c3 e0 08 	retl 
 60011b4:	01 00 00 00 	nop 

060011b8 <NFC_FMIOFF_read>:
 60011b8:	03 03 40 00 	sethi  %hi(0xd000000), %g1
 60011bc:	c4 00 60 10 	ld  [ %g1 + 0x10 ], %g2	! d000010 <nfcReg>
 60011c0:	c2 00 a0 9c 	ld  [ %g2 + 0x9c ], %g1
 60011c4:	83 30 60 10 	srl  %g1, 0x10, %g1
 60011c8:	80 a0 60 00 	cmp  %g1, 0
 60011cc:	02 bf ff fd 	be  60011c0 <NFC_FMIOFF_read+0x8>
 60011d0:	03 03 40 00 	sethi  %hi(0xd000000), %g1
 60011d4:	c2 00 60 08 	ld  [ %g1 + 8 ], %g1	! d000008 <NFC_FMIOFFRD>
 60011d8:	c0 20 40 00 	clr  [ %g1 ]
 60011dc:	d0 00 40 00 	ld  [ %g1 ], %o0
 60011e0:	81 c3 e0 08 	retl 
 60011e4:	01 00 00 00 	nop 

060011e8 <ONFI_Reset>:
 60011e8:	9d e3 bf a0 	save  %sp, -96, %sp
 60011ec:	03 03 40 00 	sethi  %hi(0xd000000), %g1
 60011f0:	c2 00 60 10 	ld  [ %g1 + 0x10 ], %g1	! d000010 <nfcReg>
 60011f4:	07 00 00 3f 	sethi  %hi(0xfc00), %g3
 60011f8:	86 10 e3 ff 	or  %g3, 0x3ff, %g3	! ffff <RAM_LENGTH+0x8fff>
 60011fc:	c4 00 60 8c 	ld  [ %g1 + 0x8c ], %g2
 6001200:	84 08 80 03 	and  %g2, %g3, %g2
 6001204:	80 a0 a0 05 	cmp  %g2, 5
 6001208:	08 bf ff fd 	bleu  60011fc <ONFI_Reset+0x14>
 600120c:	05 03 40 00 	sethi  %hi(0xd000000), %g2
 6001210:	c8 00 a0 38 	ld  [ %g2 + 0x38 ], %g4	! d000038 <nfcCmd>
 6001214:	84 10 25 06 	mov  0x506, %g2
 6001218:	07 10 00 00 	sethi  %hi(0x40000000), %g3
 600121c:	c4 21 00 00 	st  %g2, [ %g4 ]
 6001220:	c4 00 60 08 	ld  [ %g1 + 8 ], %g2
 6001224:	80 88 80 03 	btst  %g2, %g3
 6001228:	12 bf ff fe 	bne  6001220 <ONFI_Reset+0x38>
 600122c:	1b 03 40 00 	sethi  %hi(0xd000000), %o5
 6001230:	c4 03 60 00 	ld  [ %o5 ], %g2
 6001234:	07 01 80 1c 	sethi  %hi(0x6007000), %g3
 6001238:	86 10 e3 a0 	or  %g3, 0x3a0, %g3	! 60073a0 <tCS>
 600123c:	c4 08 c0 02 	ldub  [ %g3 + %g2 ], %g2
 6001240:	85 28 a0 08 	sll  %g2, 8, %g2
 6001244:	84 10 a0 84 	or  %g2, 0x84, %g2
 6001248:	c4 21 00 00 	st  %g2, [ %g4 ]
 600124c:	07 10 00 00 	sethi  %hi(0x40000000), %g3
 6001250:	c4 00 60 08 	ld  [ %g1 + 8 ], %g2
 6001254:	80 88 80 03 	btst  %g2, %g3
 6001258:	12 bf ff fe 	bne  6001250 <ONFI_Reset+0x68>
 600125c:	05 00 00 3f 	sethi  %hi(0xfc00), %g2
 6001260:	84 10 a3 20 	or  %g2, 0x320, %g2	! ff20 <RAM_LENGTH+0x8f20>
 6001264:	c4 21 00 00 	st  %g2, [ %g4 ]
 6001268:	07 10 00 00 	sethi  %hi(0x40000000), %g3
 600126c:	c4 00 60 08 	ld  [ %g1 + 8 ], %g2
 6001270:	80 88 80 03 	btst  %g2, %g3
 6001274:	12 bf ff fe 	bne  600126c <ONFI_Reset+0x84>
 6001278:	01 00 00 00 	nop 
 600127c:	c4 03 60 00 	ld  [ %o5 ], %g2
 6001280:	07 01 80 1c 	sethi  %hi(0x6007000), %g3
 6001284:	86 10 e3 80 	or  %g3, 0x380, %g3	! 6007380 <tWB>
 6001288:	c4 08 c0 02 	ldub  [ %g3 + %g2 ], %g2
 600128c:	85 28 a0 08 	sll  %g2, 8, %g2
 6001290:	84 10 a0 84 	or  %g2, 0x84, %g2
 6001294:	c4 21 00 00 	st  %g2, [ %g4 ]
 6001298:	07 10 00 00 	sethi  %hi(0x40000000), %g3
 600129c:	c4 00 60 08 	ld  [ %g1 + 8 ], %g2
 60012a0:	80 88 80 03 	btst  %g2, %g3
 60012a4:	12 bf ff fe 	bne  600129c <ONFI_Reset+0xb4>
 60012a8:	05 00 00 53 	sethi  %hi(0x14c00), %g2
 60012ac:	84 10 a1 84 	or  %g2, 0x184, %g2	! 14d84 <RAM_LENGTH+0xdd84>
 60012b0:	c4 21 00 00 	st  %g2, [ %g4 ]
 60012b4:	07 10 00 00 	sethi  %hi(0x40000000), %g3
 60012b8:	c4 00 60 08 	ld  [ %g1 + 8 ], %g2
 60012bc:	80 88 80 03 	btst  %g2, %g3
 60012c0:	12 bf ff fe 	bne  60012b8 <ONFI_Reset+0xd0>
 60012c4:	05 00 00 80 	sethi  %hi(0x20000), %g2
 60012c8:	84 10 a1 44 	or  %g2, 0x144, %g2	! 20144 <RAM_LENGTH+0x19144>
 60012cc:	c4 21 00 00 	st  %g2, [ %g4 ]
 60012d0:	07 10 00 00 	sethi  %hi(0x40000000), %g3
 60012d4:	c4 00 60 08 	ld  [ %g1 + 8 ], %g2
 60012d8:	80 88 80 03 	btst  %g2, %g3
 60012dc:	12 bf ff fe 	bne  60012d4 <ONFI_Reset+0xec>
 60012e0:	84 10 21 06 	mov  0x106, %g2
 60012e4:	c4 21 00 00 	st  %g2, [ %g4 ]
 60012e8:	07 10 00 00 	sethi  %hi(0x40000000), %g3
 60012ec:	c4 00 60 08 	ld  [ %g1 + 8 ], %g2
 60012f0:	80 88 80 03 	btst  %g2, %g3
 60012f4:	12 bf ff fe 	bne  60012ec <ONFI_Reset+0x104>
 60012f8:	01 00 00 00 	nop 
 60012fc:	81 c7 e0 08 	ret 
 6001300:	81 e8 00 00 	restore 

06001304 <ONFI_SynchronousReset>:
 6001304:	03 03 40 00 	sethi  %hi(0xd000000), %g1
 6001308:	c2 00 60 10 	ld  [ %g1 + 0x10 ], %g1	! d000010 <nfcReg>
 600130c:	07 00 00 3f 	sethi  %hi(0xfc00), %g3
 6001310:	86 10 e3 ff 	or  %g3, 0x3ff, %g3	! ffff <RAM_LENGTH+0x8fff>
 6001314:	c4 00 60 8c 	ld  [ %g1 + 0x8c ], %g2
 6001318:	84 08 80 03 	and  %g2, %g3, %g2
 600131c:	80 a0 a0 05 	cmp  %g2, 5
 6001320:	08 bf ff fd 	bleu  6001314 <ONFI_SynchronousReset+0x10>
 6001324:	05 03 40 00 	sethi  %hi(0xd000000), %g2
 6001328:	c8 00 a0 38 	ld  [ %g2 + 0x38 ], %g4	! d000038 <nfcCmd>
 600132c:	84 10 25 06 	mov  0x506, %g2
 6001330:	07 10 00 00 	sethi  %hi(0x40000000), %g3
 6001334:	c4 21 00 00 	st  %g2, [ %g4 ]
 6001338:	c4 00 60 08 	ld  [ %g1 + 8 ], %g2
 600133c:	80 88 80 03 	btst  %g2, %g3
 6001340:	12 bf ff fe 	bne  6001338 <ONFI_SynchronousReset+0x34>
 6001344:	05 00 00 3f 	sethi  %hi(0xfc00), %g2
 6001348:	84 10 a0 20 	or  %g2, 0x20, %g2	! fc20 <RAM_LENGTH+0x8c20>
 600134c:	c4 21 00 00 	st  %g2, [ %g4 ]
 6001350:	07 10 00 00 	sethi  %hi(0x40000000), %g3
 6001354:	c4 00 60 08 	ld  [ %g1 + 8 ], %g2
 6001358:	80 88 80 03 	btst  %g2, %g3
 600135c:	12 bf ff fe 	bne  6001354 <ONFI_SynchronousReset+0x50>
 6001360:	05 03 40 00 	sethi  %hi(0xd000000), %g2
 6001364:	c4 00 a0 00 	ld  [ %g2 ], %g2
 6001368:	07 01 80 1c 	sethi  %hi(0x6007000), %g3
 600136c:	86 10 e3 80 	or  %g3, 0x380, %g3	! 6007380 <tWB>
 6001370:	c4 08 c0 02 	ldub  [ %g3 + %g2 ], %g2
 6001374:	85 28 a0 08 	sll  %g2, 8, %g2
 6001378:	84 10 a0 84 	or  %g2, 0x84, %g2
 600137c:	c4 21 00 00 	st  %g2, [ %g4 ]
 6001380:	07 10 00 00 	sethi  %hi(0x40000000), %g3
 6001384:	c4 00 60 08 	ld  [ %g1 + 8 ], %g2
 6001388:	80 88 80 03 	btst  %g2, %g3
 600138c:	12 bf ff fe 	bne  6001384 <ONFI_SynchronousReset+0x80>
 6001390:	05 00 00 53 	sethi  %hi(0x14c00), %g2
 6001394:	84 10 a1 84 	or  %g2, 0x184, %g2	! 14d84 <RAM_LENGTH+0xdd84>
 6001398:	c4 21 00 00 	st  %g2, [ %g4 ]
 600139c:	07 10 00 00 	sethi  %hi(0x40000000), %g3
 60013a0:	c4 00 60 08 	ld  [ %g1 + 8 ], %g2
 60013a4:	80 88 80 03 	btst  %g2, %g3
 60013a8:	12 bf ff fe 	bne  60013a0 <ONFI_SynchronousReset+0x9c>
 60013ac:	05 00 00 80 	sethi  %hi(0x20000), %g2
 60013b0:	84 10 a1 44 	or  %g2, 0x144, %g2	! 20144 <RAM_LENGTH+0x19144>
 60013b4:	c4 21 00 00 	st  %g2, [ %g4 ]
 60013b8:	07 10 00 00 	sethi  %hi(0x40000000), %g3
 60013bc:	c4 00 60 08 	ld  [ %g1 + 8 ], %g2
 60013c0:	80 88 80 03 	btst  %g2, %g3
 60013c4:	12 bf ff fe 	bne  60013bc <ONFI_SynchronousReset+0xb8>
 60013c8:	84 10 21 06 	mov  0x106, %g2
 60013cc:	c4 21 00 00 	st  %g2, [ %g4 ]
 60013d0:	07 10 00 00 	sethi  %hi(0x40000000), %g3
 60013d4:	c4 00 60 08 	ld  [ %g1 + 8 ], %g2
 60013d8:	80 88 80 03 	btst  %g2, %g3
 60013dc:	12 bf ff fe 	bne  60013d4 <ONFI_SynchronousReset+0xd0>
 60013e0:	01 00 00 00 	nop 
 60013e4:	81 c3 e0 08 	retl 
 60013e8:	01 00 00 00 	nop 

060013ec <ONFI_ReadID>:
 60013ec:	03 03 40 00 	sethi  %hi(0xd000000), %g1
 60013f0:	c2 00 60 10 	ld  [ %g1 + 0x10 ], %g1	! d000010 <nfcReg>
 60013f4:	07 00 00 3f 	sethi  %hi(0xfc00), %g3
 60013f8:	86 10 e3 ff 	or  %g3, 0x3ff, %g3	! ffff <RAM_LENGTH+0x8fff>
 60013fc:	c4 00 60 8c 	ld  [ %g1 + 0x8c ], %g2
 6001400:	84 08 80 03 	and  %g2, %g3, %g2
 6001404:	80 a0 a0 02 	cmp  %g2, 2
 6001408:	08 bf ff fd 	bleu  60013fc <ONFI_ReadID+0x10>
 600140c:	05 03 40 00 	sethi  %hi(0xd000000), %g2
 6001410:	c8 00 a0 38 	ld  [ %g2 + 0x38 ], %g4	! d000038 <nfcCmd>
 6001414:	05 00 00 24 	sethi  %hi(0x9000), %g2
 6001418:	84 10 a0 20 	or  %g2, 0x20, %g2	! 9020 <RAM_LENGTH+0x2020>
 600141c:	07 10 00 00 	sethi  %hi(0x40000000), %g3
 6001420:	c4 21 00 00 	st  %g2, [ %g4 ]
 6001424:	c4 00 60 08 	ld  [ %g1 + 8 ], %g2
 6001428:	80 88 80 03 	btst  %g2, %g3
 600142c:	12 bf ff fe 	bne  6001424 <ONFI_ReadID+0x38>
 6001430:	84 0a 20 ff 	and  %o0, 0xff, %g2
 6001434:	85 28 a0 08 	sll  %g2, 8, %g2
 6001438:	84 10 a0 21 	or  %g2, 0x21, %g2
 600143c:	c4 21 00 00 	st  %g2, [ %g4 ]
 6001440:	07 10 00 00 	sethi  %hi(0x40000000), %g3
 6001444:	c4 00 60 08 	ld  [ %g1 + 8 ], %g2
 6001448:	80 88 80 03 	btst  %g2, %g3
 600144c:	12 bf ff fe 	bne  6001444 <ONFI_ReadID+0x58>
 6001450:	05 03 40 00 	sethi  %hi(0xd000000), %g2
 6001454:	c4 00 a0 00 	ld  [ %g2 ], %g2
 6001458:	07 01 80 1c 	sethi  %hi(0x6007000), %g3
 600145c:	86 10 e3 70 	or  %g3, 0x370, %g3	! 6007370 <tWHR>
 6001460:	c4 08 c0 02 	ldub  [ %g3 + %g2 ], %g2
 6001464:	85 28 a0 08 	sll  %g2, 8, %g2
 6001468:	84 10 a0 84 	or  %g2, 0x84, %g2
 600146c:	c4 21 00 00 	st  %g2, [ %g4 ]
 6001470:	07 10 00 00 	sethi  %hi(0x40000000), %g3
 6001474:	c4 00 60 08 	ld  [ %g1 + 8 ], %g2
 6001478:	80 88 80 03 	btst  %g2, %g3
 600147c:	12 bf ff fe 	bne  6001474 <ONFI_ReadID+0x88>
 6001480:	01 00 00 00 	nop 
 6001484:	81 c3 e0 08 	retl 
 6001488:	01 00 00 00 	nop 

0600148c <ONFI_ReadParameterPage>:
 600148c:	9d e3 bf a0 	save  %sp, -96, %sp
 6001490:	03 03 40 00 	sethi  %hi(0xd000000), %g1
 6001494:	c2 00 60 10 	ld  [ %g1 + 0x10 ], %g1	! d000010 <nfcReg>
 6001498:	07 00 00 3f 	sethi  %hi(0xfc00), %g3
 600149c:	86 10 e3 ff 	or  %g3, 0x3ff, %g3	! ffff <RAM_LENGTH+0x8fff>
 60014a0:	c4 00 60 8c 	ld  [ %g1 + 0x8c ], %g2
 60014a4:	84 08 80 03 	and  %g2, %g3, %g2
 60014a8:	80 a0 a0 04 	cmp  %g2, 4
 60014ac:	08 bf ff fd 	bleu  60014a0 <ONFI_ReadParameterPage+0x14>
 60014b0:	05 03 40 00 	sethi  %hi(0xd000000), %g2
 60014b4:	c8 00 a0 38 	ld  [ %g2 + 0x38 ], %g4	! d000038 <nfcCmd>
 60014b8:	05 00 00 3b 	sethi  %hi(0xec00), %g2
 60014bc:	84 10 a0 20 	or  %g2, 0x20, %g2	! ec20 <RAM_LENGTH+0x7c20>
 60014c0:	07 10 00 00 	sethi  %hi(0x40000000), %g3
 60014c4:	c4 21 00 00 	st  %g2, [ %g4 ]
 60014c8:	c4 00 60 08 	ld  [ %g1 + 8 ], %g2
 60014cc:	80 88 80 03 	btst  %g2, %g3
 60014d0:	12 bf ff fe 	bne  60014c8 <ONFI_ReadParameterPage+0x3c>
 60014d4:	84 0e 20 ff 	and  %i0, 0xff, %g2
 60014d8:	85 28 a0 08 	sll  %g2, 8, %g2
 60014dc:	84 10 a0 21 	or  %g2, 0x21, %g2
 60014e0:	c4 21 00 00 	st  %g2, [ %g4 ]
 60014e4:	07 10 00 00 	sethi  %hi(0x40000000), %g3
 60014e8:	c4 00 60 08 	ld  [ %g1 + 8 ], %g2
 60014ec:	80 88 80 03 	btst  %g2, %g3
 60014f0:	12 bf ff fe 	bne  60014e8 <ONFI_ReadParameterPage+0x5c>
 60014f4:	1b 03 40 00 	sethi  %hi(0xd000000), %o5
 60014f8:	c4 03 60 00 	ld  [ %o5 ], %g2
 60014fc:	07 01 80 1c 	sethi  %hi(0x6007000), %g3
 6001500:	86 10 e3 80 	or  %g3, 0x380, %g3	! 6007380 <tWB>
 6001504:	c4 08 c0 02 	ldub  [ %g3 + %g2 ], %g2
 6001508:	85 28 a0 08 	sll  %g2, 8, %g2
 600150c:	84 10 a0 84 	or  %g2, 0x84, %g2
 6001510:	c4 21 00 00 	st  %g2, [ %g4 ]
 6001514:	07 10 00 00 	sethi  %hi(0x40000000), %g3
 6001518:	c4 00 60 08 	ld  [ %g1 + 8 ], %g2
 600151c:	80 88 80 03 	btst  %g2, %g3
 6001520:	12 bf ff fe 	bne  6001518 <ONFI_ReadParameterPage+0x8c>
 6001524:	05 00 00 80 	sethi  %hi(0x20000), %g2
 6001528:	84 10 a1 44 	or  %g2, 0x144, %g2	! 20144 <RAM_LENGTH+0x19144>
 600152c:	c4 21 00 00 	st  %g2, [ %g4 ]
 6001530:	07 10 00 00 	sethi  %hi(0x40000000), %g3
 6001534:	c4 00 60 08 	ld  [ %g1 + 8 ], %g2
 6001538:	80 88 80 03 	btst  %g2, %g3
 600153c:	12 bf ff fe 	bne  6001534 <ONFI_ReadParameterPage+0xa8>
 6001540:	01 00 00 00 	nop 
 6001544:	c4 03 60 00 	ld  [ %o5 ], %g2
 6001548:	07 01 80 1c 	sethi  %hi(0x6007000), %g3
 600154c:	86 10 e3 90 	or  %g3, 0x390, %g3	! 6007390 <tRR>
 6001550:	c4 08 c0 02 	ldub  [ %g3 + %g2 ], %g2
 6001554:	85 28 a0 08 	sll  %g2, 8, %g2
 6001558:	84 10 a0 84 	or  %g2, 0x84, %g2
 600155c:	c4 21 00 00 	st  %g2, [ %g4 ]
 6001560:	07 10 00 00 	sethi  %hi(0x40000000), %g3
 6001564:	c4 00 60 08 	ld  [ %g1 + 8 ], %g2
 6001568:	80 88 80 03 	btst  %g2, %g3
 600156c:	12 bf ff fe 	bne  6001564 <ONFI_ReadParameterPage+0xd8>
 6001570:	01 00 00 00 	nop 
 6001574:	81 c7 e0 08 	ret 
 6001578:	81 e8 00 00 	restore 

0600157c <ONFI_ReadUniqueID>:
 600157c:	9d e3 bf a0 	save  %sp, -96, %sp
 6001580:	03 03 40 00 	sethi  %hi(0xd000000), %g1
 6001584:	c2 00 60 10 	ld  [ %g1 + 0x10 ], %g1	! d000010 <nfcReg>
 6001588:	07 00 00 3f 	sethi  %hi(0xfc00), %g3
 600158c:	86 10 e3 ff 	or  %g3, 0x3ff, %g3	! ffff <RAM_LENGTH+0x8fff>
 6001590:	c4 00 60 8c 	ld  [ %g1 + 0x8c ], %g2
 6001594:	84 08 80 03 	and  %g2, %g3, %g2
 6001598:	80 a0 a0 04 	cmp  %g2, 4
 600159c:	08 bf ff fd 	bleu  6001590 <ONFI_ReadUniqueID+0x14>
 60015a0:	05 03 40 00 	sethi  %hi(0xd000000), %g2
 60015a4:	c8 00 a0 38 	ld  [ %g2 + 0x38 ], %g4	! d000038 <nfcCmd>
 60015a8:	05 00 00 3b 	sethi  %hi(0xec00), %g2
 60015ac:	84 10 a1 20 	or  %g2, 0x120, %g2	! ed20 <RAM_LENGTH+0x7d20>
 60015b0:	07 10 00 00 	sethi  %hi(0x40000000), %g3
 60015b4:	c4 21 00 00 	st  %g2, [ %g4 ]
 60015b8:	c4 00 60 08 	ld  [ %g1 + 8 ], %g2
 60015bc:	80 88 80 03 	btst  %g2, %g3
 60015c0:	12 bf ff fe 	bne  60015b8 <ONFI_ReadUniqueID+0x3c>
 60015c4:	84 0e 20 ff 	and  %i0, 0xff, %g2
 60015c8:	85 28 a0 08 	sll  %g2, 8, %g2
 60015cc:	84 10 a0 21 	or  %g2, 0x21, %g2
 60015d0:	c4 21 00 00 	st  %g2, [ %g4 ]
 60015d4:	07 10 00 00 	sethi  %hi(0x40000000), %g3
 60015d8:	c4 00 60 08 	ld  [ %g1 + 8 ], %g2
 60015dc:	80 88 80 03 	btst  %g2, %g3
 60015e0:	12 bf ff fe 	bne  60015d8 <ONFI_ReadUniqueID+0x5c>
 60015e4:	1b 03 40 00 	sethi  %hi(0xd000000), %o5
 60015e8:	c4 03 60 00 	ld  [ %o5 ], %g2
 60015ec:	07 01 80 1c 	sethi  %hi(0x6007000), %g3
 60015f0:	86 10 e3 80 	or  %g3, 0x380, %g3	! 6007380 <tWB>
 60015f4:	c4 08 c0 02 	ldub  [ %g3 + %g2 ], %g2
 60015f8:	85 28 a0 08 	sll  %g2, 8, %g2
 60015fc:	84 10 a0 84 	or  %g2, 0x84, %g2
 6001600:	c4 21 00 00 	st  %g2, [ %g4 ]
 6001604:	07 10 00 00 	sethi  %hi(0x40000000), %g3
 6001608:	c4 00 60 08 	ld  [ %g1 + 8 ], %g2
 600160c:	80 88 80 03 	btst  %g2, %g3
 6001610:	12 bf ff fe 	bne  6001608 <ONFI_ReadUniqueID+0x8c>
 6001614:	05 00 00 80 	sethi  %hi(0x20000), %g2
 6001618:	84 10 a1 44 	or  %g2, 0x144, %g2	! 20144 <RAM_LENGTH+0x19144>
 600161c:	c4 21 00 00 	st  %g2, [ %g4 ]
 6001620:	07 10 00 00 	sethi  %hi(0x40000000), %g3
 6001624:	c4 00 60 08 	ld  [ %g1 + 8 ], %g2
 6001628:	80 88 80 03 	btst  %g2, %g3
 600162c:	12 bf ff fe 	bne  6001624 <ONFI_ReadUniqueID+0xa8>
 6001630:	01 00 00 00 	nop 
 6001634:	c4 03 60 00 	ld  [ %o5 ], %g2
 6001638:	07 01 80 1c 	sethi  %hi(0x6007000), %g3
 600163c:	86 10 e3 90 	or  %g3, 0x390, %g3	! 6007390 <tRR>
 6001640:	c4 08 c0 02 	ldub  [ %g3 + %g2 ], %g2
 6001644:	85 28 a0 08 	sll  %g2, 8, %g2
 6001648:	84 10 a0 84 	or  %g2, 0x84, %g2
 600164c:	c4 21 00 00 	st  %g2, [ %g4 ]
 6001650:	07 10 00 00 	sethi  %hi(0x40000000), %g3
 6001654:	c4 00 60 08 	ld  [ %g1 + 8 ], %g2
 6001658:	80 88 80 03 	btst  %g2, %g3
 600165c:	12 bf ff fe 	bne  6001654 <ONFI_ReadUniqueID+0xd8>
 6001660:	01 00 00 00 	nop 
 6001664:	81 c7 e0 08 	ret 
 6001668:	81 e8 00 00 	restore 

0600166c <ONFI_SetFeatures>:
 600166c:	9d e3 bf a0 	save  %sp, -96, %sp
 6001670:	03 03 40 00 	sethi  %hi(0xd000000), %g1
 6001674:	c2 00 60 10 	ld  [ %g1 + 0x10 ], %g1	! d000010 <nfcReg>
 6001678:	07 00 00 3f 	sethi  %hi(0xfc00), %g3
 600167c:	86 10 e3 ff 	or  %g3, 0x3ff, %g3	! ffff <RAM_LENGTH+0x8fff>
 6001680:	c4 00 60 8c 	ld  [ %g1 + 0x8c ], %g2
 6001684:	84 08 80 03 	and  %g2, %g3, %g2
 6001688:	80 a0 a0 0a 	cmp  %g2, 0xa
 600168c:	08 bf ff fd 	bleu  6001680 <ONFI_SetFeatures+0x14>
 6001690:	05 03 40 00 	sethi  %hi(0xd000000), %g2
 6001694:	c6 00 a0 38 	ld  [ %g2 + 0x38 ], %g3	! d000038 <nfcCmd>
 6001698:	05 00 00 3b 	sethi  %hi(0xec00), %g2
 600169c:	84 10 a3 20 	or  %g2, 0x320, %g2	! ef20 <RAM_LENGTH+0x7f20>
 60016a0:	09 10 00 00 	sethi  %hi(0x40000000), %g4
 60016a4:	c4 20 c0 00 	st  %g2, [ %g3 ]
 60016a8:	c4 00 60 08 	ld  [ %g1 + 8 ], %g2
 60016ac:	80 88 80 04 	btst  %g2, %g4
 60016b0:	12 bf ff fe 	bne  60016a8 <ONFI_SetFeatures+0x3c>
 60016b4:	84 0e 20 ff 	and  %i0, 0xff, %g2
 60016b8:	85 28 a0 08 	sll  %g2, 8, %g2
 60016bc:	84 10 a0 21 	or  %g2, 0x21, %g2
 60016c0:	c4 20 c0 00 	st  %g2, [ %g3 ]
 60016c4:	09 10 00 00 	sethi  %hi(0x40000000), %g4
 60016c8:	c4 00 60 08 	ld  [ %g1 + 8 ], %g2
 60016cc:	80 88 80 04 	btst  %g2, %g4
 60016d0:	12 bf ff fe 	bne  60016c8 <ONFI_SetFeatures+0x5c>
 60016d4:	1b 03 40 00 	sethi  %hi(0xd000000), %o5
 60016d8:	c4 03 60 00 	ld  [ %o5 ], %g2
 60016dc:	09 01 80 1c 	sethi  %hi(0x6007000), %g4
 60016e0:	88 11 23 88 	or  %g4, 0x388, %g4	! 6007388 <tADL>
 60016e4:	c4 09 00 02 	ldub  [ %g4 + %g2 ], %g2
 60016e8:	85 28 a0 08 	sll  %g2, 8, %g2
 60016ec:	84 10 a0 84 	or  %g2, 0x84, %g2
 60016f0:	c4 20 c0 00 	st  %g2, [ %g3 ]
 60016f4:	09 10 00 00 	sethi  %hi(0x40000000), %g4
 60016f8:	c4 00 60 08 	ld  [ %g1 + 8 ], %g2
 60016fc:	80 88 80 04 	btst  %g2, %g4
 6001700:	12 bf ff fe 	bne  60016f8 <ONFI_SetFeatures+0x8c>
 6001704:	05 00 00 80 	sethi  %hi(0x20000), %g2
 6001708:	84 10 a1 44 	or  %g2, 0x144, %g2	! 20144 <RAM_LENGTH+0x19144>
 600170c:	c4 20 c0 00 	st  %g2, [ %g3 ]
 6001710:	09 10 00 00 	sethi  %hi(0x40000000), %g4
 6001714:	c4 00 60 08 	ld  [ %g1 + 8 ], %g2
 6001718:	80 88 80 04 	btst  %g2, %g4
 600171c:	12 bf ff fe 	bne  6001714 <ONFI_SetFeatures+0xa8>
 6001720:	01 00 00 00 	nop 
 6001724:	c4 03 60 00 	ld  [ %o5 ], %g2
 6001728:	19 01 80 1c 	sethi  %hi(0x6007000), %o4
 600172c:	98 13 23 80 	or  %o4, 0x380, %o4	! 6007380 <tWB>
 6001730:	c4 0b 00 02 	ldub  [ %o4 + %g2 ], %g2
 6001734:	85 28 a0 08 	sll  %g2, 8, %g2
 6001738:	84 10 a0 84 	or  %g2, 0x84, %g2
 600173c:	c4 20 c0 00 	st  %g2, [ %g3 ]
 6001740:	09 10 00 00 	sethi  %hi(0x40000000), %g4
 6001744:	c4 00 60 08 	ld  [ %g1 + 8 ], %g2
 6001748:	80 88 80 04 	btst  %g2, %g4
 600174c:	12 bf ff fe 	bne  6001744 <ONFI_SetFeatures+0xd8>
 6001750:	05 00 00 3f 	sethi  %hi(0xfc00), %g2
 6001754:	89 2e 60 08 	sll  %i1, 8, %g4
 6001758:	84 10 a3 ff 	or  %g2, 0x3ff, %g2
 600175c:	84 09 00 02 	and  %g4, %g2, %g2
 6001760:	84 10 a0 23 	or  %g2, 0x23, %g2
 6001764:	c4 20 c0 00 	st  %g2, [ %g3 ]
 6001768:	09 10 00 00 	sethi  %hi(0x40000000), %g4
 600176c:	c4 00 60 08 	ld  [ %g1 + 8 ], %g2
 6001770:	80 88 80 04 	btst  %g2, %g4
 6001774:	12 bf ff fe 	bne  600176c <ONFI_SetFeatures+0x100>
 6001778:	05 00 00 3f 	sethi  %hi(0xfc00), %g2
 600177c:	84 10 a3 00 	or  %g2, 0x300, %g2	! ff00 <RAM_LENGTH+0x8f00>
 6001780:	84 0e 40 02 	and  %i1, %g2, %g2
 6001784:	84 10 a0 23 	or  %g2, 0x23, %g2
 6001788:	c4 20 c0 00 	st  %g2, [ %g3 ]
 600178c:	09 10 00 00 	sethi  %hi(0x40000000), %g4
 6001790:	c4 00 60 08 	ld  [ %g1 + 8 ], %g2
 6001794:	80 88 80 04 	btst  %g2, %g4
 6001798:	12 bf ff fe 	bne  6001790 <ONFI_SetFeatures+0x124>
 600179c:	05 00 00 3f 	sethi  %hi(0xfc00), %g2
 60017a0:	89 36 60 10 	srl  %i1, 0x10, %g4
 60017a4:	89 29 20 08 	sll  %g4, 8, %g4
 60017a8:	84 10 a3 ff 	or  %g2, 0x3ff, %g2
 60017ac:	84 09 00 02 	and  %g4, %g2, %g2
 60017b0:	84 10 a0 23 	or  %g2, 0x23, %g2
 60017b4:	c4 20 c0 00 	st  %g2, [ %g3 ]
 60017b8:	09 10 00 00 	sethi  %hi(0x40000000), %g4
 60017bc:	c4 00 60 08 	ld  [ %g1 + 8 ], %g2
 60017c0:	80 88 80 04 	btst  %g2, %g4
 60017c4:	12 bf ff fe 	bne  60017bc <ONFI_SetFeatures+0x150>
 60017c8:	01 00 00 00 	nop 
 60017cc:	b3 36 60 18 	srl  %i1, 0x18, %i1
 60017d0:	b3 2e 60 08 	sll  %i1, 8, %i1
 60017d4:	b2 16 60 23 	or  %i1, 0x23, %i1
 60017d8:	f2 20 c0 00 	st  %i1, [ %g3 ]
 60017dc:	09 10 00 00 	sethi  %hi(0x40000000), %g4
 60017e0:	c4 00 60 08 	ld  [ %g1 + 8 ], %g2
 60017e4:	80 88 80 04 	btst  %g2, %g4
 60017e8:	12 bf ff fe 	bne  60017e0 <ONFI_SetFeatures+0x174>
 60017ec:	01 00 00 00 	nop 
 60017f0:	c4 03 60 00 	ld  [ %o5 ], %g2
 60017f4:	c4 0b 00 02 	ldub  [ %o4 + %g2 ], %g2
 60017f8:	85 28 a0 08 	sll  %g2, 8, %g2
 60017fc:	84 10 a0 a4 	or  %g2, 0xa4, %g2
 6001800:	c4 20 c0 00 	st  %g2, [ %g3 ]
 6001804:	09 10 00 00 	sethi  %hi(0x40000000), %g4
 6001808:	c4 00 60 08 	ld  [ %g1 + 8 ], %g2
 600180c:	80 88 80 04 	btst  %g2, %g4
 6001810:	12 bf ff fe 	bne  6001808 <ONFI_SetFeatures+0x19c>
 6001814:	05 00 00 80 	sethi  %hi(0x20000), %g2
 6001818:	84 10 a1 44 	or  %g2, 0x144, %g2	! 20144 <RAM_LENGTH+0x19144>
 600181c:	c4 20 c0 00 	st  %g2, [ %g3 ]
 6001820:	07 10 00 00 	sethi  %hi(0x40000000), %g3
 6001824:	c4 00 60 08 	ld  [ %g1 + 8 ], %g2
 6001828:	80 88 80 03 	btst  %g2, %g3
 600182c:	12 bf ff fe 	bne  6001824 <ONFI_SetFeatures+0x1b8>
 6001830:	01 00 00 00 	nop 
 6001834:	81 c7 e0 08 	ret 
 6001838:	81 e8 00 00 	restore 

0600183c <ONFI_GetFeatures>:
 600183c:	9d e3 bf a0 	save  %sp, -96, %sp
 6001840:	03 03 40 00 	sethi  %hi(0xd000000), %g1
 6001844:	c2 00 60 10 	ld  [ %g1 + 0x10 ], %g1	! d000010 <nfcReg>
 6001848:	07 00 00 3f 	sethi  %hi(0xfc00), %g3
 600184c:	86 10 e3 ff 	or  %g3, 0x3ff, %g3	! ffff <RAM_LENGTH+0x8fff>
 6001850:	c4 00 60 8c 	ld  [ %g1 + 0x8c ], %g2
 6001854:	84 08 80 03 	and  %g2, %g3, %g2
 6001858:	80 a0 a0 04 	cmp  %g2, 4
 600185c:	08 bf ff fd 	bleu  6001850 <ONFI_GetFeatures+0x14>
 6001860:	05 03 40 00 	sethi  %hi(0xd000000), %g2
 6001864:	c8 00 a0 38 	ld  [ %g2 + 0x38 ], %g4	! d000038 <nfcCmd>
 6001868:	05 00 00 3b 	sethi  %hi(0xec00), %g2
 600186c:	84 10 a2 20 	or  %g2, 0x220, %g2	! ee20 <RAM_LENGTH+0x7e20>
 6001870:	07 10 00 00 	sethi  %hi(0x40000000), %g3
 6001874:	c4 21 00 00 	st  %g2, [ %g4 ]
 6001878:	c4 00 60 08 	ld  [ %g1 + 8 ], %g2
 600187c:	80 88 80 03 	btst  %g2, %g3
 6001880:	12 bf ff fe 	bne  6001878 <ONFI_GetFeatures+0x3c>
 6001884:	85 2e 20 08 	sll  %i0, 8, %g2
 6001888:	84 10 a0 21 	or  %g2, 0x21, %g2
 600188c:	c4 21 00 00 	st  %g2, [ %g4 ]
 6001890:	07 10 00 00 	sethi  %hi(0x40000000), %g3
 6001894:	c4 00 60 08 	ld  [ %g1 + 8 ], %g2
 6001898:	80 88 80 03 	btst  %g2, %g3
 600189c:	12 bf ff fe 	bne  6001894 <ONFI_GetFeatures+0x58>
 60018a0:	1b 03 40 00 	sethi  %hi(0xd000000), %o5
 60018a4:	c4 03 60 00 	ld  [ %o5 ], %g2
 60018a8:	07 01 80 1c 	sethi  %hi(0x6007000), %g3
 60018ac:	86 10 e3 80 	or  %g3, 0x380, %g3	! 6007380 <tWB>
 60018b0:	c4 08 c0 02 	ldub  [ %g3 + %g2 ], %g2
 60018b4:	85 28 a0 08 	sll  %g2, 8, %g2
 60018b8:	84 10 a0 84 	or  %g2, 0x84, %g2
 60018bc:	c4 21 00 00 	st  %g2, [ %g4 ]
 60018c0:	07 10 00 00 	sethi  %hi(0x40000000), %g3
 60018c4:	c4 00 60 08 	ld  [ %g1 + 8 ], %g2
 60018c8:	80 88 80 03 	btst  %g2, %g3
 60018cc:	12 bf ff fe 	bne  60018c4 <ONFI_GetFeatures+0x88>
 60018d0:	05 00 00 80 	sethi  %hi(0x20000), %g2
 60018d4:	84 10 a1 44 	or  %g2, 0x144, %g2	! 20144 <RAM_LENGTH+0x19144>
 60018d8:	c4 21 00 00 	st  %g2, [ %g4 ]
 60018dc:	07 10 00 00 	sethi  %hi(0x40000000), %g3
 60018e0:	c4 00 60 08 	ld  [ %g1 + 8 ], %g2
 60018e4:	80 88 80 03 	btst  %g2, %g3
 60018e8:	12 bf ff fe 	bne  60018e0 <ONFI_GetFeatures+0xa4>
 60018ec:	01 00 00 00 	nop 
 60018f0:	c4 03 60 00 	ld  [ %o5 ], %g2
 60018f4:	07 01 80 1c 	sethi  %hi(0x6007000), %g3
 60018f8:	86 10 e3 90 	or  %g3, 0x390, %g3	! 6007390 <tRR>
 60018fc:	c4 08 c0 02 	ldub  [ %g3 + %g2 ], %g2
 6001900:	85 28 a0 08 	sll  %g2, 8, %g2
 6001904:	84 10 a0 84 	or  %g2, 0x84, %g2
 6001908:	c4 21 00 00 	st  %g2, [ %g4 ]
 600190c:	07 10 00 00 	sethi  %hi(0x40000000), %g3
 6001910:	c4 00 60 08 	ld  [ %g1 + 8 ], %g2
 6001914:	80 88 80 03 	btst  %g2, %g3
 6001918:	12 bf ff fe 	bne  6001910 <ONFI_GetFeatures+0xd4>
 600191c:	01 00 00 00 	nop 
 6001920:	81 c7 e0 08 	ret 
 6001924:	81 e8 00 00 	restore 

06001928 <ONFI_ReadStatus>:
 6001928:	9d e3 bf a0 	save  %sp, -96, %sp
 600192c:	03 03 40 00 	sethi  %hi(0xd000000), %g1
 6001930:	c2 00 60 10 	ld  [ %g1 + 0x10 ], %g1	! d000010 <nfcReg>
 6001934:	07 00 00 3f 	sethi  %hi(0xfc00), %g3
 6001938:	86 10 e3 ff 	or  %g3, 0x3ff, %g3	! ffff <RAM_LENGTH+0x8fff>
 600193c:	c4 00 60 8c 	ld  [ %g1 + 0x8c ], %g2
 6001940:	84 08 80 03 	and  %g2, %g3, %g2
 6001944:	80 a0 a0 02 	cmp  %g2, 2
 6001948:	08 bf ff fd 	bleu  600193c <ONFI_ReadStatus+0x14>
 600194c:	05 03 40 00 	sethi  %hi(0xd000000), %g2
 6001950:	c8 00 a0 38 	ld  [ %g2 + 0x38 ], %g4	! d000038 <nfcCmd>
 6001954:	05 00 00 1c 	sethi  %hi(0x7000), %g2
 6001958:	84 10 a0 20 	or  %g2, 0x20, %g2	! 7020 <RAM_LENGTH+0x20>
 600195c:	07 10 00 00 	sethi  %hi(0x40000000), %g3
 6001960:	c4 21 00 00 	st  %g2, [ %g4 ]
 6001964:	c4 00 60 08 	ld  [ %g1 + 8 ], %g2
 6001968:	80 88 80 03 	btst  %g2, %g3
 600196c:	12 bf ff fe 	bne  6001964 <ONFI_ReadStatus+0x3c>
 6001970:	1b 03 40 00 	sethi  %hi(0xd000000), %o5
 6001974:	c4 03 60 00 	ld  [ %o5 ], %g2
 6001978:	07 01 80 1c 	sethi  %hi(0x6007000), %g3
 600197c:	86 10 e3 70 	or  %g3, 0x370, %g3	! 6007370 <tWHR>
 6001980:	c4 08 c0 02 	ldub  [ %g3 + %g2 ], %g2
 6001984:	85 28 a0 08 	sll  %g2, 8, %g2
 6001988:	84 10 a0 84 	or  %g2, 0x84, %g2
 600198c:	c4 21 00 00 	st  %g2, [ %g4 ]
 6001990:	07 10 00 00 	sethi  %hi(0x40000000), %g3
 6001994:	c4 00 60 08 	ld  [ %g1 + 8 ], %g2
 6001998:	80 88 80 03 	btst  %g2, %g3
 600199c:	12 bf ff fe 	bne  6001994 <ONFI_ReadStatus+0x6c>
 60019a0:	01 00 00 00 	nop 
 60019a4:	c4 00 60 08 	ld  [ %g1 + 8 ], %g2
 60019a8:	80 88 a0 02 	btst  2, %g2
 60019ac:	02 80 00 40 	be  6001aac <ONFI_ReadStatus+0x184>
 60019b0:	84 10 20 82 	mov  0x82, %g2
 60019b4:	07 00 00 3f 	sethi  %hi(0xfc00), %g3
 60019b8:	86 10 e3 ff 	or  %g3, 0x3ff, %g3	! ffff <RAM_LENGTH+0x8fff>
 60019bc:	c4 00 60 8c 	ld  [ %g1 + 0x8c ], %g2
 60019c0:	84 08 80 03 	and  %g2, %g3, %g2
 60019c4:	80 a0 a0 05 	cmp  %g2, 5
 60019c8:	08 bf ff fd 	bleu  60019bc <ONFI_ReadStatus+0x94>
 60019cc:	05 00 00 66 	sethi  %hi(0x19800), %g2
 60019d0:	84 10 a2 06 	or  %g2, 0x206, %g2	! 19a06 <RAM_LENGTH+0x12a06>
 60019d4:	c4 21 00 00 	st  %g2, [ %g4 ]
 60019d8:	07 10 00 00 	sethi  %hi(0x40000000), %g3
 60019dc:	c4 00 60 08 	ld  [ %g1 + 8 ], %g2
 60019e0:	80 88 80 03 	btst  %g2, %g3
 60019e4:	12 bf ff fe 	bne  60019dc <ONFI_ReadStatus+0xb4>
 60019e8:	84 10 22 84 	mov  0x284, %g2
 60019ec:	c4 21 00 00 	st  %g2, [ %g4 ]
 60019f0:	07 10 00 00 	sethi  %hi(0x40000000), %g3
 60019f4:	c4 00 60 08 	ld  [ %g1 + 8 ], %g2
 60019f8:	80 88 80 03 	btst  %g2, %g3
 60019fc:	12 bf ff fe 	bne  60019f4 <ONFI_ReadStatus+0xcc>
 6001a00:	84 10 21 82 	mov  0x182, %g2
 6001a04:	c4 21 00 00 	st  %g2, [ %g4 ]
 6001a08:	07 10 00 00 	sethi  %hi(0x40000000), %g3
 6001a0c:	c4 00 60 08 	ld  [ %g1 + 8 ], %g2
 6001a10:	80 88 80 03 	btst  %g2, %g3
 6001a14:	12 bf ff fe 	bne  6001a0c <ONFI_ReadStatus+0xe4>
 6001a18:	84 10 22 84 	mov  0x284, %g2
 6001a1c:	c4 21 00 00 	st  %g2, [ %g4 ]
 6001a20:	07 10 00 00 	sethi  %hi(0x40000000), %g3
 6001a24:	c4 00 60 08 	ld  [ %g1 + 8 ], %g2
 6001a28:	80 88 80 03 	btst  %g2, %g3
 6001a2c:	12 bf ff fe 	bne  6001a24 <ONFI_ReadStatus+0xfc>
 6001a30:	05 00 00 62 	sethi  %hi(0x18800), %g2
 6001a34:	84 10 a2 06 	or  %g2, 0x206, %g2	! 18a06 <RAM_LENGTH+0x11a06>
 6001a38:	c4 21 00 00 	st  %g2, [ %g4 ]
 6001a3c:	07 10 00 00 	sethi  %hi(0x40000000), %g3
 6001a40:	c4 00 60 08 	ld  [ %g1 + 8 ], %g2
 6001a44:	80 88 80 03 	btst  %g2, %g3
 6001a48:	12 bf ff fe 	bne  6001a40 <ONFI_ReadStatus+0x118>
 6001a4c:	01 00 00 00 	nop 
 6001a50:	c4 03 60 00 	ld  [ %o5 ], %g2
 6001a54:	07 01 80 1c 	sethi  %hi(0x6007000), %g3
 6001a58:	86 10 e3 78 	or  %g3, 0x378, %g3	! 6007378 <tRHW>
 6001a5c:	c4 08 c0 02 	ldub  [ %g3 + %g2 ], %g2
 6001a60:	85 28 a0 08 	sll  %g2, 8, %g2
 6001a64:	84 10 a0 84 	or  %g2, 0x84, %g2
 6001a68:	c4 21 00 00 	st  %g2, [ %g4 ]
 6001a6c:	07 10 00 00 	sethi  %hi(0x40000000), %g3
 6001a70:	c4 00 60 08 	ld  [ %g1 + 8 ], %g2
 6001a74:	80 88 80 03 	btst  %g2, %g3
 6001a78:	12 bf ff fe 	bne  6001a70 <ONFI_ReadStatus+0x148>
 6001a7c:	01 00 00 00 	nop 
 6001a80:	c4 00 60 90 	ld  [ %g1 + 0x90 ], %g2
 6001a84:	85 30 a0 10 	srl  %g2, 0x10, %g2
 6001a88:	80 a0 a0 00 	cmp  %g2, 0
 6001a8c:	02 bf ff fd 	be  6001a80 <ONFI_ReadStatus+0x158>
 6001a90:	01 00 00 00 	nop 
 6001a94:	03 03 40 00 	sethi  %hi(0xd000000), %g1
 6001a98:	c2 00 60 04 	ld  [ %g1 + 4 ], %g1	! d000004 <NFC_FMICFFRD>
 6001a9c:	c0 20 40 00 	clr  [ %g1 ]
 6001aa0:	f0 00 40 00 	ld  [ %g1 ], %i0
 6001aa4:	81 c7 e0 08 	ret 
 6001aa8:	81 e8 00 00 	restore 
 6001aac:	c4 21 00 00 	st  %g2, [ %g4 ]
 6001ab0:	07 10 00 00 	sethi  %hi(0x40000000), %g3
 6001ab4:	c4 00 60 08 	ld  [ %g1 + 8 ], %g2
 6001ab8:	80 88 80 03 	btst  %g2, %g3
 6001abc:	12 bf ff fe 	bne  6001ab4 <ONFI_ReadStatus+0x18c>
 6001ac0:	01 00 00 00 	nop 
 6001ac4:	c4 00 60 90 	ld  [ %g1 + 0x90 ], %g2
 6001ac8:	85 30 a0 10 	srl  %g2, 0x10, %g2
 6001acc:	80 a0 a0 00 	cmp  %g2, 0
 6001ad0:	02 bf ff ec 	be  6001a80 <ONFI_ReadStatus+0x158>
 6001ad4:	01 00 00 00 	nop 
 6001ad8:	10 bf ff f0 	b  6001a98 <ONFI_ReadStatus+0x170>
 6001adc:	03 03 40 00 	sethi  %hi(0xd000000), %g1

06001ae0 <ONFI_SelectLunWithStatus>:
 6001ae0:	9d e3 bf a0 	save  %sp, -96, %sp
 6001ae4:	03 03 40 00 	sethi  %hi(0xd000000), %g1
 6001ae8:	c2 00 60 10 	ld  [ %g1 + 0x10 ], %g1	! d000010 <nfcReg>
 6001aec:	07 00 00 3f 	sethi  %hi(0xfc00), %g3
 6001af0:	86 10 e3 ff 	or  %g3, 0x3ff, %g3	! ffff <RAM_LENGTH+0x8fff>
 6001af4:	c4 00 60 8c 	ld  [ %g1 + 0x8c ], %g2
 6001af8:	84 08 80 03 	and  %g2, %g3, %g2
 6001afc:	80 a0 a0 05 	cmp  %g2, 5
 6001b00:	08 bf ff fd 	bleu  6001af4 <ONFI_SelectLunWithStatus+0x14>
 6001b04:	05 03 40 00 	sethi  %hi(0xd000000), %g2
 6001b08:	c6 00 a0 38 	ld  [ %g2 + 0x38 ], %g3	! d000038 <nfcCmd>
 6001b0c:	05 00 00 1e 	sethi  %hi(0x7800), %g2
 6001b10:	84 10 a0 20 	or  %g2, 0x20, %g2	! 7820 <RAM_LENGTH+0x820>
 6001b14:	09 10 00 00 	sethi  %hi(0x40000000), %g4
 6001b18:	c4 20 c0 00 	st  %g2, [ %g3 ]
 6001b1c:	c4 00 60 08 	ld  [ %g1 + 8 ], %g2
 6001b20:	80 88 80 04 	btst  %g2, %g4
 6001b24:	12 bf ff fe 	bne  6001b1c <ONFI_SelectLunWithStatus+0x3c>
 6001b28:	05 00 00 3f 	sethi  %hi(0xfc00), %g2
 6001b2c:	89 2e 20 08 	sll  %i0, 8, %g4
 6001b30:	84 10 a3 ff 	or  %g2, 0x3ff, %g2
 6001b34:	84 09 00 02 	and  %g4, %g2, %g2
 6001b38:	84 10 a0 21 	or  %g2, 0x21, %g2
 6001b3c:	c4 20 c0 00 	st  %g2, [ %g3 ]
 6001b40:	09 10 00 00 	sethi  %hi(0x40000000), %g4
 6001b44:	c4 00 60 08 	ld  [ %g1 + 8 ], %g2
 6001b48:	80 88 80 04 	btst  %g2, %g4
 6001b4c:	12 bf ff fe 	bne  6001b44 <ONFI_SelectLunWithStatus+0x64>
 6001b50:	05 00 00 3f 	sethi  %hi(0xfc00), %g2
 6001b54:	84 10 a3 00 	or  %g2, 0x300, %g2	! ff00 <RAM_LENGTH+0x8f00>
 6001b58:	84 0e 00 02 	and  %i0, %g2, %g2
 6001b5c:	84 10 a0 21 	or  %g2, 0x21, %g2
 6001b60:	c4 20 c0 00 	st  %g2, [ %g3 ]
 6001b64:	09 10 00 00 	sethi  %hi(0x40000000), %g4
 6001b68:	c4 00 60 08 	ld  [ %g1 + 8 ], %g2
 6001b6c:	80 88 80 04 	btst  %g2, %g4
 6001b70:	12 bf ff fe 	bne  6001b68 <ONFI_SelectLunWithStatus+0x88>
 6001b74:	05 00 00 3f 	sethi  %hi(0xfc00), %g2
 6001b78:	b1 36 20 10 	srl  %i0, 0x10, %i0
 6001b7c:	b1 2e 20 08 	sll  %i0, 8, %i0
 6001b80:	84 10 a3 ff 	or  %g2, 0x3ff, %g2
 6001b84:	84 0e 00 02 	and  %i0, %g2, %g2
 6001b88:	84 10 a0 21 	or  %g2, 0x21, %g2
 6001b8c:	c4 20 c0 00 	st  %g2, [ %g3 ]
 6001b90:	09 10 00 00 	sethi  %hi(0x40000000), %g4
 6001b94:	c4 00 60 08 	ld  [ %g1 + 8 ], %g2
 6001b98:	80 88 80 04 	btst  %g2, %g4
 6001b9c:	12 bf ff fe 	bne  6001b94 <ONFI_SelectLunWithStatus+0xb4>
 6001ba0:	1b 03 40 00 	sethi  %hi(0xd000000), %o5
 6001ba4:	c4 03 60 00 	ld  [ %o5 ], %g2
 6001ba8:	09 01 80 1c 	sethi  %hi(0x6007000), %g4
 6001bac:	88 11 23 70 	or  %g4, 0x370, %g4	! 6007370 <tWHR>
 6001bb0:	c4 09 00 02 	ldub  [ %g4 + %g2 ], %g2
 6001bb4:	85 28 a0 08 	sll  %g2, 8, %g2
 6001bb8:	84 10 a0 84 	or  %g2, 0x84, %g2
 6001bbc:	c4 20 c0 00 	st  %g2, [ %g3 ]
 6001bc0:	09 10 00 00 	sethi  %hi(0x40000000), %g4
 6001bc4:	c4 00 60 08 	ld  [ %g1 + 8 ], %g2
 6001bc8:	80 88 80 04 	btst  %g2, %g4
 6001bcc:	12 bf ff fe 	bne  6001bc4 <ONFI_SelectLunWithStatus+0xe4>
 6001bd0:	01 00 00 00 	nop 
 6001bd4:	c4 00 60 08 	ld  [ %g1 + 8 ], %g2
 6001bd8:	80 88 a0 02 	btst  2, %g2
 6001bdc:	02 80 00 40 	be  6001cdc <ONFI_SelectLunWithStatus+0x1fc>
 6001be0:	84 10 20 82 	mov  0x82, %g2
 6001be4:	09 00 00 3f 	sethi  %hi(0xfc00), %g4
 6001be8:	88 11 23 ff 	or  %g4, 0x3ff, %g4	! ffff <RAM_LENGTH+0x8fff>
 6001bec:	c4 00 60 8c 	ld  [ %g1 + 0x8c ], %g2
 6001bf0:	84 08 80 04 	and  %g2, %g4, %g2
 6001bf4:	80 a0 a0 04 	cmp  %g2, 4
 6001bf8:	08 bf ff fd 	bleu  6001bec <ONFI_SelectLunWithStatus+0x10c>
 6001bfc:	05 00 00 66 	sethi  %hi(0x19800), %g2
 6001c00:	84 10 a2 06 	or  %g2, 0x206, %g2	! 19a06 <RAM_LENGTH+0x12a06>
 6001c04:	c4 20 c0 00 	st  %g2, [ %g3 ]
 6001c08:	09 10 00 00 	sethi  %hi(0x40000000), %g4
 6001c0c:	c4 00 60 08 	ld  [ %g1 + 8 ], %g2
 6001c10:	80 88 80 04 	btst  %g2, %g4
 6001c14:	12 bf ff fe 	bne  6001c0c <ONFI_SelectLunWithStatus+0x12c>
 6001c18:	84 10 22 84 	mov  0x284, %g2
 6001c1c:	c4 20 c0 00 	st  %g2, [ %g3 ]
 6001c20:	09 10 00 00 	sethi  %hi(0x40000000), %g4
 6001c24:	c4 00 60 08 	ld  [ %g1 + 8 ], %g2
 6001c28:	80 88 80 04 	btst  %g2, %g4
 6001c2c:	12 bf ff fe 	bne  6001c24 <ONFI_SelectLunWithStatus+0x144>
 6001c30:	84 10 21 82 	mov  0x182, %g2
 6001c34:	c4 20 c0 00 	st  %g2, [ %g3 ]
 6001c38:	09 10 00 00 	sethi  %hi(0x40000000), %g4
 6001c3c:	c4 00 60 08 	ld  [ %g1 + 8 ], %g2
 6001c40:	80 88 80 04 	btst  %g2, %g4
 6001c44:	12 bf ff fe 	bne  6001c3c <ONFI_SelectLunWithStatus+0x15c>
 6001c48:	84 10 22 84 	mov  0x284, %g2
 6001c4c:	c4 20 c0 00 	st  %g2, [ %g3 ]
 6001c50:	09 10 00 00 	sethi  %hi(0x40000000), %g4
 6001c54:	c4 00 60 08 	ld  [ %g1 + 8 ], %g2
 6001c58:	80 88 80 04 	btst  %g2, %g4
 6001c5c:	12 bf ff fe 	bne  6001c54 <ONFI_SelectLunWithStatus+0x174>
 6001c60:	05 00 00 62 	sethi  %hi(0x18800), %g2
 6001c64:	84 10 a2 06 	or  %g2, 0x206, %g2	! 18a06 <RAM_LENGTH+0x11a06>
 6001c68:	c4 20 c0 00 	st  %g2, [ %g3 ]
 6001c6c:	09 10 00 00 	sethi  %hi(0x40000000), %g4
 6001c70:	c4 00 60 08 	ld  [ %g1 + 8 ], %g2
 6001c74:	80 88 80 04 	btst  %g2, %g4
 6001c78:	12 bf ff fe 	bne  6001c70 <ONFI_SelectLunWithStatus+0x190>
 6001c7c:	01 00 00 00 	nop 
 6001c80:	c4 03 60 00 	ld  [ %o5 ], %g2
 6001c84:	09 01 80 1c 	sethi  %hi(0x6007000), %g4
 6001c88:	88 11 23 78 	or  %g4, 0x378, %g4	! 6007378 <tRHW>
 6001c8c:	c4 09 00 02 	ldub  [ %g4 + %g2 ], %g2
 6001c90:	85 28 a0 08 	sll  %g2, 8, %g2
 6001c94:	84 10 a0 84 	or  %g2, 0x84, %g2
 6001c98:	c4 20 c0 00 	st  %g2, [ %g3 ]
 6001c9c:	07 10 00 00 	sethi  %hi(0x40000000), %g3
 6001ca0:	c4 00 60 08 	ld  [ %g1 + 8 ], %g2
 6001ca4:	80 88 80 03 	btst  %g2, %g3
 6001ca8:	12 bf ff fe 	bne  6001ca0 <ONFI_SelectLunWithStatus+0x1c0>
 6001cac:	01 00 00 00 	nop 
 6001cb0:	c4 00 60 90 	ld  [ %g1 + 0x90 ], %g2
 6001cb4:	85 30 a0 10 	srl  %g2, 0x10, %g2
 6001cb8:	80 a0 a0 00 	cmp  %g2, 0
 6001cbc:	02 bf ff fd 	be  6001cb0 <ONFI_SelectLunWithStatus+0x1d0>
 6001cc0:	01 00 00 00 	nop 
 6001cc4:	03 03 40 00 	sethi  %hi(0xd000000), %g1
 6001cc8:	c2 00 60 04 	ld  [ %g1 + 4 ], %g1	! d000004 <NFC_FMICFFRD>
 6001ccc:	c0 20 40 00 	clr  [ %g1 ]
 6001cd0:	f0 00 40 00 	ld  [ %g1 ], %i0
 6001cd4:	81 c7 e0 08 	ret 
 6001cd8:	81 e8 00 00 	restore 
 6001cdc:	c4 20 c0 00 	st  %g2, [ %g3 ]
 6001ce0:	07 10 00 00 	sethi  %hi(0x40000000), %g3
 6001ce4:	c4 00 60 08 	ld  [ %g1 + 8 ], %g2
 6001ce8:	80 88 80 03 	btst  %g2, %g3
 6001cec:	12 bf ff fe 	bne  6001ce4 <ONFI_SelectLunWithStatus+0x204>
 6001cf0:	01 00 00 00 	nop 
 6001cf4:	c4 00 60 90 	ld  [ %g1 + 0x90 ], %g2
 6001cf8:	85 30 a0 10 	srl  %g2, 0x10, %g2
 6001cfc:	80 a0 a0 00 	cmp  %g2, 0
 6001d00:	02 bf ff ec 	be  6001cb0 <ONFI_SelectLunWithStatus+0x1d0>
 6001d04:	01 00 00 00 	nop 
 6001d08:	10 bf ff f0 	b  6001cc8 <ONFI_SelectLunWithStatus+0x1e8>
 6001d0c:	03 03 40 00 	sethi  %hi(0xd000000), %g1

06001d10 <ONFI_ChangeReadColumn>:
 6001d10:	03 03 40 00 	sethi  %hi(0xd000000), %g1
 6001d14:	c2 00 60 10 	ld  [ %g1 + 0x10 ], %g1	! d000010 <nfcReg>
 6001d18:	07 00 00 3f 	sethi  %hi(0xfc00), %g3
 6001d1c:	86 10 e3 ff 	or  %g3, 0x3ff, %g3	! ffff <RAM_LENGTH+0x8fff>
 6001d20:	c4 00 60 8c 	ld  [ %g1 + 0x8c ], %g2
 6001d24:	84 08 80 03 	and  %g2, %g3, %g2
 6001d28:	80 a0 a0 04 	cmp  %g2, 4
 6001d2c:	08 bf ff fd 	bleu  6001d20 <ONFI_ChangeReadColumn+0x10>
 6001d30:	05 03 40 00 	sethi  %hi(0xd000000), %g2
 6001d34:	c8 00 a0 38 	ld  [ %g2 + 0x38 ], %g4	! d000038 <nfcCmd>
 6001d38:	84 10 25 20 	mov  0x520, %g2
 6001d3c:	07 10 00 00 	sethi  %hi(0x40000000), %g3
 6001d40:	c4 21 00 00 	st  %g2, [ %g4 ]
 6001d44:	c4 00 60 08 	ld  [ %g1 + 8 ], %g2
 6001d48:	80 88 80 03 	btst  %g2, %g3
 6001d4c:	12 bf ff fe 	bne  6001d44 <ONFI_ChangeReadColumn+0x34>
 6001d50:	05 00 00 3f 	sethi  %hi(0xfc00), %g2
 6001d54:	91 2a 20 10 	sll  %o0, 0x10, %o0
 6001d58:	87 32 20 08 	srl  %o0, 8, %g3
 6001d5c:	84 10 a3 ff 	or  %g2, 0x3ff, %g2
 6001d60:	84 08 c0 02 	and  %g3, %g2, %g2
 6001d64:	84 10 a0 21 	or  %g2, 0x21, %g2
 6001d68:	c4 21 00 00 	st  %g2, [ %g4 ]
 6001d6c:	07 10 00 00 	sethi  %hi(0x40000000), %g3
 6001d70:	c4 00 60 08 	ld  [ %g1 + 8 ], %g2
 6001d74:	80 88 80 03 	btst  %g2, %g3
 6001d78:	12 bf ff fe 	bne  6001d70 <ONFI_ChangeReadColumn+0x60>
 6001d7c:	01 00 00 00 	nop 
 6001d80:	91 32 20 18 	srl  %o0, 0x18, %o0
 6001d84:	91 2a 20 08 	sll  %o0, 8, %o0
 6001d88:	90 12 20 21 	or  %o0, 0x21, %o0
 6001d8c:	d0 21 00 00 	st  %o0, [ %g4 ]
 6001d90:	07 10 00 00 	sethi  %hi(0x40000000), %g3
 6001d94:	c4 00 60 08 	ld  [ %g1 + 8 ], %g2
 6001d98:	80 88 80 03 	btst  %g2, %g3
 6001d9c:	12 bf ff fe 	bne  6001d94 <ONFI_ChangeReadColumn+0x84>
 6001da0:	05 00 00 38 	sethi  %hi(0xe000), %g2
 6001da4:	84 10 a0 20 	or  %g2, 0x20, %g2	! e020 <RAM_LENGTH+0x7020>
 6001da8:	c4 21 00 00 	st  %g2, [ %g4 ]
 6001dac:	07 10 00 00 	sethi  %hi(0x40000000), %g3
 6001db0:	c4 00 60 08 	ld  [ %g1 + 8 ], %g2
 6001db4:	80 88 80 03 	btst  %g2, %g3
 6001db8:	12 bf ff fe 	bne  6001db0 <ONFI_ChangeReadColumn+0xa0>
 6001dbc:	05 03 40 00 	sethi  %hi(0xd000000), %g2
 6001dc0:	c4 00 a0 00 	ld  [ %g2 ], %g2
 6001dc4:	07 01 80 1c 	sethi  %hi(0x6007000), %g3
 6001dc8:	86 10 e3 98 	or  %g3, 0x398, %g3	! 6007398 <tCCS>
 6001dcc:	c4 08 c0 02 	ldub  [ %g3 + %g2 ], %g2
 6001dd0:	85 28 a0 08 	sll  %g2, 8, %g2
 6001dd4:	84 10 a0 84 	or  %g2, 0x84, %g2
 6001dd8:	c4 21 00 00 	st  %g2, [ %g4 ]
 6001ddc:	07 10 00 00 	sethi  %hi(0x40000000), %g3
 6001de0:	c4 00 60 08 	ld  [ %g1 + 8 ], %g2
 6001de4:	80 88 80 03 	btst  %g2, %g3
 6001de8:	12 bf ff fe 	bne  6001de0 <ONFI_ChangeReadColumn+0xd0>
 6001dec:	01 00 00 00 	nop 
 6001df0:	81 c3 e0 08 	retl 
 6001df4:	01 00 00 00 	nop 

06001df8 <ONFI_SelectCacheRegister>:
 6001df8:	9d e3 bf a0 	save  %sp, -96, %sp
 6001dfc:	03 03 40 00 	sethi  %hi(0xd000000), %g1
 6001e00:	c2 00 60 10 	ld  [ %g1 + 0x10 ], %g1	! d000010 <nfcReg>
 6001e04:	07 00 00 3f 	sethi  %hi(0xfc00), %g3
 6001e08:	86 10 e3 ff 	or  %g3, 0x3ff, %g3	! ffff <RAM_LENGTH+0x8fff>
 6001e0c:	c4 00 60 8c 	ld  [ %g1 + 0x8c ], %g2
 6001e10:	84 08 80 03 	and  %g2, %g3, %g2
 6001e14:	80 a0 a0 08 	cmp  %g2, 8
 6001e18:	08 bf ff fd 	bleu  6001e0c <ONFI_SelectCacheRegister+0x14>
 6001e1c:	05 03 40 00 	sethi  %hi(0xd000000), %g2
 6001e20:	c6 00 a0 38 	ld  [ %g2 + 0x38 ], %g3	! d000038 <nfcCmd>
 6001e24:	84 10 26 20 	mov  0x620, %g2
 6001e28:	09 10 00 00 	sethi  %hi(0x40000000), %g4
 6001e2c:	c4 20 c0 00 	st  %g2, [ %g3 ]
 6001e30:	c4 00 60 08 	ld  [ %g1 + 8 ], %g2
 6001e34:	80 88 80 04 	btst  %g2, %g4
 6001e38:	12 bf ff fe 	bne  6001e30 <ONFI_SelectCacheRegister+0x38>
 6001e3c:	1b 03 40 00 	sethi  %hi(0xd000000), %o5
 6001e40:	c4 03 60 00 	ld  [ %o5 ], %g2
 6001e44:	09 01 80 1c 	sethi  %hi(0x6007000), %g4
 6001e48:	88 11 23 78 	or  %g4, 0x378, %g4	! 6007378 <tRHW>
 6001e4c:	c4 09 00 02 	ldub  [ %g4 + %g2 ], %g2
 6001e50:	85 28 a0 08 	sll  %g2, 8, %g2
 6001e54:	84 10 a0 84 	or  %g2, 0x84, %g2
 6001e58:	c4 20 c0 00 	st  %g2, [ %g3 ]
 6001e5c:	09 10 00 00 	sethi  %hi(0x40000000), %g4
 6001e60:	c4 00 60 08 	ld  [ %g1 + 8 ], %g2
 6001e64:	80 88 80 04 	btst  %g2, %g4
 6001e68:	12 bf ff fe 	bne  6001e60 <ONFI_SelectCacheRegister+0x68>
 6001e6c:	05 00 00 3f 	sethi  %hi(0xfc00), %g2
 6001e70:	b3 2e 60 10 	sll  %i1, 0x10, %i1
 6001e74:	89 36 60 08 	srl  %i1, 8, %g4
 6001e78:	84 10 a3 ff 	or  %g2, 0x3ff, %g2
 6001e7c:	84 09 00 02 	and  %g4, %g2, %g2
 6001e80:	84 10 a0 21 	or  %g2, 0x21, %g2
 6001e84:	c4 20 c0 00 	st  %g2, [ %g3 ]
 6001e88:	09 10 00 00 	sethi  %hi(0x40000000), %g4
 6001e8c:	c4 00 60 08 	ld  [ %g1 + 8 ], %g2
 6001e90:	80 88 80 04 	btst  %g2, %g4
 6001e94:	12 bf ff fe 	bne  6001e8c <ONFI_SelectCacheRegister+0x94>
 6001e98:	01 00 00 00 	nop 
 6001e9c:	b3 36 60 18 	srl  %i1, 0x18, %i1
 6001ea0:	b3 2e 60 08 	sll  %i1, 8, %i1
 6001ea4:	b2 16 60 21 	or  %i1, 0x21, %i1
 6001ea8:	f2 20 c0 00 	st  %i1, [ %g3 ]
 6001eac:	09 10 00 00 	sethi  %hi(0x40000000), %g4
 6001eb0:	c4 00 60 08 	ld  [ %g1 + 8 ], %g2
 6001eb4:	80 88 80 04 	btst  %g2, %g4
 6001eb8:	12 bf ff fe 	bne  6001eb0 <ONFI_SelectCacheRegister+0xb8>
 6001ebc:	05 00 00 3f 	sethi  %hi(0xfc00), %g2
 6001ec0:	89 2e 20 08 	sll  %i0, 8, %g4
 6001ec4:	84 10 a3 ff 	or  %g2, 0x3ff, %g2
 6001ec8:	84 09 00 02 	and  %g4, %g2, %g2
 6001ecc:	84 10 a0 21 	or  %g2, 0x21, %g2
 6001ed0:	c4 20 c0 00 	st  %g2, [ %g3 ]
 6001ed4:	09 10 00 00 	sethi  %hi(0x40000000), %g4
 6001ed8:	c4 00 60 08 	ld  [ %g1 + 8 ], %g2
 6001edc:	80 88 80 04 	btst  %g2, %g4
 6001ee0:	12 bf ff fe 	bne  6001ed8 <ONFI_SelectCacheRegister+0xe0>
 6001ee4:	05 00 00 3f 	sethi  %hi(0xfc00), %g2
 6001ee8:	84 10 a3 00 	or  %g2, 0x300, %g2	! ff00 <RAM_LENGTH+0x8f00>
 6001eec:	84 0e 00 02 	and  %i0, %g2, %g2
 6001ef0:	84 10 a0 21 	or  %g2, 0x21, %g2
 6001ef4:	c4 20 c0 00 	st  %g2, [ %g3 ]
 6001ef8:	09 10 00 00 	sethi  %hi(0x40000000), %g4
 6001efc:	c4 00 60 08 	ld  [ %g1 + 8 ], %g2
 6001f00:	80 88 80 04 	btst  %g2, %g4
 6001f04:	12 bf ff fe 	bne  6001efc <ONFI_SelectCacheRegister+0x104>
 6001f08:	05 00 00 3f 	sethi  %hi(0xfc00), %g2
 6001f0c:	b1 36 20 10 	srl  %i0, 0x10, %i0
 6001f10:	b1 2e 20 08 	sll  %i0, 8, %i0
 6001f14:	84 10 a3 ff 	or  %g2, 0x3ff, %g2
 6001f18:	84 0e 00 02 	and  %i0, %g2, %g2
 6001f1c:	84 10 a0 21 	or  %g2, 0x21, %g2
 6001f20:	c4 20 c0 00 	st  %g2, [ %g3 ]
 6001f24:	09 10 00 00 	sethi  %hi(0x40000000), %g4
 6001f28:	c4 00 60 08 	ld  [ %g1 + 8 ], %g2
 6001f2c:	80 88 80 04 	btst  %g2, %g4
 6001f30:	12 bf ff fe 	bne  6001f28 <ONFI_SelectCacheRegister+0x130>
 6001f34:	05 00 00 38 	sethi  %hi(0xe000), %g2
 6001f38:	84 10 a0 20 	or  %g2, 0x20, %g2	! e020 <RAM_LENGTH+0x7020>
 6001f3c:	c4 20 c0 00 	st  %g2, [ %g3 ]
 6001f40:	09 10 00 00 	sethi  %hi(0x40000000), %g4
 6001f44:	c4 00 60 08 	ld  [ %g1 + 8 ], %g2
 6001f48:	80 88 80 04 	btst  %g2, %g4
 6001f4c:	12 bf ff fe 	bne  6001f44 <ONFI_SelectCacheRegister+0x14c>
 6001f50:	01 00 00 00 	nop 
 6001f54:	c4 03 60 00 	ld  [ %o5 ], %g2
 6001f58:	09 01 80 1c 	sethi  %hi(0x6007000), %g4
 6001f5c:	88 11 23 98 	or  %g4, 0x398, %g4	! 6007398 <tCCS>
 6001f60:	c4 09 00 02 	ldub  [ %g4 + %g2 ], %g2
 6001f64:	85 28 a0 08 	sll  %g2, 8, %g2
 6001f68:	84 10 a0 84 	or  %g2, 0x84, %g2
 6001f6c:	c4 20 c0 00 	st  %g2, [ %g3 ]
 6001f70:	07 10 00 00 	sethi  %hi(0x40000000), %g3
 6001f74:	c4 00 60 08 	ld  [ %g1 + 8 ], %g2
 6001f78:	80 88 80 03 	btst  %g2, %g3
 6001f7c:	12 bf ff fe 	bne  6001f74 <ONFI_SelectCacheRegister+0x17c>
 6001f80:	01 00 00 00 	nop 
 6001f84:	81 c7 e0 08 	ret 
 6001f88:	81 e8 00 00 	restore 

06001f8c <ONFI_ChangeWriteColumn>:
 6001f8c:	03 03 40 00 	sethi  %hi(0xd000000), %g1
 6001f90:	c2 00 60 10 	ld  [ %g1 + 0x10 ], %g1	! d000010 <nfcReg>
 6001f94:	07 00 00 3f 	sethi  %hi(0xfc00), %g3
 6001f98:	86 10 e3 ff 	or  %g3, 0x3ff, %g3	! ffff <RAM_LENGTH+0x8fff>
 6001f9c:	c4 00 60 8c 	ld  [ %g1 + 0x8c ], %g2
 6001fa0:	84 08 80 03 	and  %g2, %g3, %g2
 6001fa4:	80 a0 a0 03 	cmp  %g2, 3
 6001fa8:	08 bf ff fd 	bleu  6001f9c <ONFI_ChangeWriteColumn+0x10>
 6001fac:	05 03 40 00 	sethi  %hi(0xd000000), %g2
 6001fb0:	c8 00 a0 38 	ld  [ %g2 + 0x38 ], %g4	! d000038 <nfcCmd>
 6001fb4:	05 00 00 21 	sethi  %hi(0x8400), %g2
 6001fb8:	84 10 a1 20 	or  %g2, 0x120, %g2	! 8520 <RAM_LENGTH+0x1520>
 6001fbc:	07 10 00 00 	sethi  %hi(0x40000000), %g3
 6001fc0:	c4 21 00 00 	st  %g2, [ %g4 ]
 6001fc4:	c4 00 60 08 	ld  [ %g1 + 8 ], %g2
 6001fc8:	80 88 80 03 	btst  %g2, %g3
 6001fcc:	12 bf ff fe 	bne  6001fc4 <ONFI_ChangeWriteColumn+0x38>
 6001fd0:	05 00 00 3f 	sethi  %hi(0xfc00), %g2
 6001fd4:	91 2a 20 10 	sll  %o0, 0x10, %o0
 6001fd8:	87 32 20 08 	srl  %o0, 8, %g3
 6001fdc:	84 10 a3 ff 	or  %g2, 0x3ff, %g2
 6001fe0:	84 08 c0 02 	and  %g3, %g2, %g2
 6001fe4:	84 10 a0 21 	or  %g2, 0x21, %g2
 6001fe8:	c4 21 00 00 	st  %g2, [ %g4 ]
 6001fec:	07 10 00 00 	sethi  %hi(0x40000000), %g3
 6001ff0:	c4 00 60 08 	ld  [ %g1 + 8 ], %g2
 6001ff4:	80 88 80 03 	btst  %g2, %g3
 6001ff8:	12 bf ff fe 	bne  6001ff0 <ONFI_ChangeWriteColumn+0x64>
 6001ffc:	01 00 00 00 	nop 
 6002000:	91 32 20 18 	srl  %o0, 0x18, %o0
 6002004:	91 2a 20 08 	sll  %o0, 8, %o0
 6002008:	90 12 20 21 	or  %o0, 0x21, %o0
 600200c:	d0 21 00 00 	st  %o0, [ %g4 ]
 6002010:	07 10 00 00 	sethi  %hi(0x40000000), %g3
 6002014:	c4 00 60 08 	ld  [ %g1 + 8 ], %g2
 6002018:	80 88 80 03 	btst  %g2, %g3
 600201c:	12 bf ff fe 	bne  6002014 <ONFI_ChangeWriteColumn+0x88>
 6002020:	05 03 40 00 	sethi  %hi(0xd000000), %g2
 6002024:	c4 00 a0 00 	ld  [ %g2 ], %g2
 6002028:	07 01 80 1c 	sethi  %hi(0x6007000), %g3
 600202c:	86 10 e3 98 	or  %g3, 0x398, %g3	! 6007398 <tCCS>
 6002030:	c4 08 c0 02 	ldub  [ %g3 + %g2 ], %g2
 6002034:	85 28 a0 08 	sll  %g2, 8, %g2
 6002038:	84 10 a0 a4 	or  %g2, 0xa4, %g2
 600203c:	c4 21 00 00 	st  %g2, [ %g4 ]
 6002040:	07 10 00 00 	sethi  %hi(0x40000000), %g3
 6002044:	c4 00 60 08 	ld  [ %g1 + 8 ], %g2
 6002048:	80 88 80 03 	btst  %g2, %g3
 600204c:	12 bf ff fe 	bne  6002044 <ONFI_ChangeWriteColumn+0xb8>
 6002050:	01 00 00 00 	nop 
 6002054:	81 c3 e0 08 	retl 
 6002058:	01 00 00 00 	nop 

0600205c <ONFI_ChangeRowAddress>:
 600205c:	03 03 40 00 	sethi  %hi(0xd000000), %g1
 6002060:	c2 00 60 10 	ld  [ %g1 + 0x10 ], %g1	! d000010 <nfcReg>
 6002064:	07 00 00 3f 	sethi  %hi(0xfc00), %g3
 6002068:	86 10 e3 ff 	or  %g3, 0x3ff, %g3	! ffff <RAM_LENGTH+0x8fff>
 600206c:	c4 00 60 8c 	ld  [ %g1 + 0x8c ], %g2
 6002070:	84 08 80 03 	and  %g2, %g3, %g2
 6002074:	80 a0 a0 06 	cmp  %g2, 6
 6002078:	08 bf ff fd 	bleu  600206c <ONFI_ChangeRowAddress+0x10>
 600207c:	05 03 40 00 	sethi  %hi(0xd000000), %g2
 6002080:	c8 00 a0 38 	ld  [ %g2 + 0x38 ], %g4	! d000038 <nfcCmd>
 6002084:	05 00 00 21 	sethi  %hi(0x8400), %g2
 6002088:	84 10 a1 20 	or  %g2, 0x120, %g2	! 8520 <RAM_LENGTH+0x1520>
 600208c:	07 10 00 00 	sethi  %hi(0x40000000), %g3
 6002090:	c4 21 00 00 	st  %g2, [ %g4 ]
 6002094:	c4 00 60 08 	ld  [ %g1 + 8 ], %g2
 6002098:	80 88 80 03 	btst  %g2, %g3
 600209c:	12 bf ff fe 	bne  6002094 <ONFI_ChangeRowAddress+0x38>
 60020a0:	05 00 00 3f 	sethi  %hi(0xfc00), %g2
 60020a4:	93 2a 60 10 	sll  %o1, 0x10, %o1
 60020a8:	87 32 60 08 	srl  %o1, 8, %g3
 60020ac:	84 10 a3 ff 	or  %g2, 0x3ff, %g2
 60020b0:	84 08 c0 02 	and  %g3, %g2, %g2
 60020b4:	84 10 a0 21 	or  %g2, 0x21, %g2
 60020b8:	c4 21 00 00 	st  %g2, [ %g4 ]
 60020bc:	07 10 00 00 	sethi  %hi(0x40000000), %g3
 60020c0:	c4 00 60 08 	ld  [ %g1 + 8 ], %g2
 60020c4:	80 88 80 03 	btst  %g2, %g3
 60020c8:	12 bf ff fe 	bne  60020c0 <ONFI_ChangeRowAddress+0x64>
 60020cc:	01 00 00 00 	nop 
 60020d0:	93 32 60 18 	srl  %o1, 0x18, %o1
 60020d4:	93 2a 60 08 	sll  %o1, 8, %o1
 60020d8:	92 12 60 21 	or  %o1, 0x21, %o1
 60020dc:	d2 21 00 00 	st  %o1, [ %g4 ]
 60020e0:	07 10 00 00 	sethi  %hi(0x40000000), %g3
 60020e4:	c4 00 60 08 	ld  [ %g1 + 8 ], %g2
 60020e8:	80 88 80 03 	btst  %g2, %g3
 60020ec:	12 bf ff fe 	bne  60020e4 <ONFI_ChangeRowAddress+0x88>
 60020f0:	05 00 00 3f 	sethi  %hi(0xfc00), %g2
 60020f4:	87 2a 20 08 	sll  %o0, 8, %g3
 60020f8:	84 10 a3 ff 	or  %g2, 0x3ff, %g2
 60020fc:	84 08 c0 02 	and  %g3, %g2, %g2
 6002100:	84 10 a0 21 	or  %g2, 0x21, %g2
 6002104:	c4 21 00 00 	st  %g2, [ %g4 ]
 6002108:	07 10 00 00 	sethi  %hi(0x40000000), %g3
 600210c:	c4 00 60 08 	ld  [ %g1 + 8 ], %g2
 6002110:	80 88 80 03 	btst  %g2, %g3
 6002114:	12 bf ff fe 	bne  600210c <ONFI_ChangeRowAddress+0xb0>
 6002118:	05 00 00 3f 	sethi  %hi(0xfc00), %g2
 600211c:	84 10 a3 00 	or  %g2, 0x300, %g2	! ff00 <RAM_LENGTH+0x8f00>
 6002120:	84 0a 00 02 	and  %o0, %g2, %g2
 6002124:	84 10 a0 21 	or  %g2, 0x21, %g2
 6002128:	c4 21 00 00 	st  %g2, [ %g4 ]
 600212c:	07 10 00 00 	sethi  %hi(0x40000000), %g3
 6002130:	c4 00 60 08 	ld  [ %g1 + 8 ], %g2
 6002134:	80 88 80 03 	btst  %g2, %g3
 6002138:	12 bf ff fe 	bne  6002130 <ONFI_ChangeRowAddress+0xd4>
 600213c:	05 00 00 3f 	sethi  %hi(0xfc00), %g2
 6002140:	91 32 20 10 	srl  %o0, 0x10, %o0
 6002144:	91 2a 20 08 	sll  %o0, 8, %o0
 6002148:	84 10 a3 ff 	or  %g2, 0x3ff, %g2
 600214c:	84 0a 00 02 	and  %o0, %g2, %g2
 6002150:	84 10 a0 21 	or  %g2, 0x21, %g2
 6002154:	c4 21 00 00 	st  %g2, [ %g4 ]
 6002158:	07 10 00 00 	sethi  %hi(0x40000000), %g3
 600215c:	c4 00 60 08 	ld  [ %g1 + 8 ], %g2
 6002160:	80 88 80 03 	btst  %g2, %g3
 6002164:	12 bf ff fe 	bne  600215c <ONFI_ChangeRowAddress+0x100>
 6002168:	05 03 40 00 	sethi  %hi(0xd000000), %g2
 600216c:	c4 00 a0 00 	ld  [ %g2 ], %g2
 6002170:	07 01 80 1c 	sethi  %hi(0x6007000), %g3
 6002174:	86 10 e3 98 	or  %g3, 0x398, %g3	! 6007398 <tCCS>
 6002178:	c4 08 c0 02 	ldub  [ %g3 + %g2 ], %g2
 600217c:	85 28 a0 08 	sll  %g2, 8, %g2
 6002180:	84 10 a0 84 	or  %g2, 0x84, %g2
 6002184:	c4 21 00 00 	st  %g2, [ %g4 ]
 6002188:	07 10 00 00 	sethi  %hi(0x40000000), %g3
 600218c:	c4 00 60 08 	ld  [ %g1 + 8 ], %g2
 6002190:	80 88 80 03 	btst  %g2, %g3
 6002194:	12 bf ff fe 	bne  600218c <ONFI_ChangeRowAddress+0x130>
 6002198:	01 00 00 00 	nop 
 600219c:	81 c3 e0 08 	retl 
 60021a0:	01 00 00 00 	nop 

060021a4 <ONFI_ReadMode>:
 60021a4:	03 03 40 00 	sethi  %hi(0xd000000), %g1
 60021a8:	c2 00 60 38 	ld  [ %g1 + 0x38 ], %g1	! d000038 <nfcCmd>
 60021ac:	05 03 40 00 	sethi  %hi(0xd000000), %g2
 60021b0:	c6 00 a0 10 	ld  [ %g2 + 0x10 ], %g3	! d000010 <nfcReg>
 60021b4:	84 10 20 20 	mov  0x20, %g2
 60021b8:	c4 20 40 00 	st  %g2, [ %g1 ]
 60021bc:	05 10 00 00 	sethi  %hi(0x40000000), %g2
 60021c0:	c2 00 e0 08 	ld  [ %g3 + 8 ], %g1
 60021c4:	80 88 40 02 	btst  %g1, %g2
 60021c8:	12 bf ff fe 	bne  60021c0 <ONFI_ReadMode+0x1c>
 60021cc:	01 00 00 00 	nop 
 60021d0:	81 c3 e0 08 	retl 
 60021d4:	01 00 00 00 	nop 

060021d8 <ONFI_ReadPage>:
 60021d8:	9d e3 bf a0 	save  %sp, -96, %sp
 60021dc:	03 03 40 00 	sethi  %hi(0xd000000), %g1
 60021e0:	c2 00 60 10 	ld  [ %g1 + 0x10 ], %g1	! d000010 <nfcReg>
 60021e4:	07 00 00 3f 	sethi  %hi(0xfc00), %g3
 60021e8:	86 10 e3 ff 	or  %g3, 0x3ff, %g3	! ffff <RAM_LENGTH+0x8fff>
 60021ec:	c4 00 60 8c 	ld  [ %g1 + 0x8c ], %g2
 60021f0:	84 08 80 03 	and  %g2, %g3, %g2
 60021f4:	80 a0 a0 0a 	cmp  %g2, 0xa
 60021f8:	08 bf ff fd 	bleu  60021ec <ONFI_ReadPage+0x14>
 60021fc:	05 03 40 00 	sethi  %hi(0xd000000), %g2
 6002200:	c6 00 a0 38 	ld  [ %g2 + 0x38 ], %g3	! d000038 <nfcCmd>
 6002204:	84 10 20 20 	mov  0x20, %g2
 6002208:	09 10 00 00 	sethi  %hi(0x40000000), %g4
 600220c:	c4 20 c0 00 	st  %g2, [ %g3 ]
 6002210:	c4 00 60 08 	ld  [ %g1 + 8 ], %g2
 6002214:	80 88 80 04 	btst  %g2, %g4
 6002218:	12 bf ff fe 	bne  6002210 <ONFI_ReadPage+0x38>
 600221c:	05 00 00 3f 	sethi  %hi(0xfc00), %g2
 6002220:	b3 2e 60 10 	sll  %i1, 0x10, %i1
 6002224:	89 36 60 08 	srl  %i1, 8, %g4
 6002228:	84 10 a3 ff 	or  %g2, 0x3ff, %g2
 600222c:	84 09 00 02 	and  %g4, %g2, %g2
 6002230:	84 10 a0 21 	or  %g2, 0x21, %g2
 6002234:	c4 20 c0 00 	st  %g2, [ %g3 ]
 6002238:	09 10 00 00 	sethi  %hi(0x40000000), %g4
 600223c:	c4 00 60 08 	ld  [ %g1 + 8 ], %g2
 6002240:	80 88 80 04 	btst  %g2, %g4
 6002244:	12 bf ff fe 	bne  600223c <ONFI_ReadPage+0x64>
 6002248:	01 00 00 00 	nop 
 600224c:	b3 36 60 18 	srl  %i1, 0x18, %i1
 6002250:	b3 2e 60 08 	sll  %i1, 8, %i1
 6002254:	b2 16 60 21 	or  %i1, 0x21, %i1
 6002258:	f2 20 c0 00 	st  %i1, [ %g3 ]
 600225c:	09 10 00 00 	sethi  %hi(0x40000000), %g4
 6002260:	c4 00 60 08 	ld  [ %g1 + 8 ], %g2
 6002264:	80 88 80 04 	btst  %g2, %g4
 6002268:	12 bf ff fe 	bne  6002260 <ONFI_ReadPage+0x88>
 600226c:	05 00 00 3f 	sethi  %hi(0xfc00), %g2
 6002270:	89 2e 20 08 	sll  %i0, 8, %g4
 6002274:	84 10 a3 ff 	or  %g2, 0x3ff, %g2
 6002278:	84 09 00 02 	and  %g4, %g2, %g2
 600227c:	84 10 a0 21 	or  %g2, 0x21, %g2
 6002280:	c4 20 c0 00 	st  %g2, [ %g3 ]
 6002284:	09 10 00 00 	sethi  %hi(0x40000000), %g4
 6002288:	c4 00 60 08 	ld  [ %g1 + 8 ], %g2
 600228c:	80 88 80 04 	btst  %g2, %g4
 6002290:	12 bf ff fe 	bne  6002288 <ONFI_ReadPage+0xb0>
 6002294:	05 00 00 3f 	sethi  %hi(0xfc00), %g2
 6002298:	84 10 a3 00 	or  %g2, 0x300, %g2	! ff00 <RAM_LENGTH+0x8f00>
 600229c:	84 0e 00 02 	and  %i0, %g2, %g2
 60022a0:	84 10 a0 21 	or  %g2, 0x21, %g2
 60022a4:	c4 20 c0 00 	st  %g2, [ %g3 ]
 60022a8:	09 10 00 00 	sethi  %hi(0x40000000), %g4
 60022ac:	c4 00 60 08 	ld  [ %g1 + 8 ], %g2
 60022b0:	80 88 80 04 	btst  %g2, %g4
 60022b4:	12 bf ff fe 	bne  60022ac <ONFI_ReadPage+0xd4>
 60022b8:	05 00 00 3f 	sethi  %hi(0xfc00), %g2
 60022bc:	b1 36 20 10 	srl  %i0, 0x10, %i0
 60022c0:	b1 2e 20 08 	sll  %i0, 8, %i0
 60022c4:	84 10 a3 ff 	or  %g2, 0x3ff, %g2
 60022c8:	84 0e 00 02 	and  %i0, %g2, %g2
 60022cc:	84 10 a0 21 	or  %g2, 0x21, %g2
 60022d0:	c4 20 c0 00 	st  %g2, [ %g3 ]
 60022d4:	09 10 00 00 	sethi  %hi(0x40000000), %g4
 60022d8:	c4 00 60 08 	ld  [ %g1 + 8 ], %g2
 60022dc:	80 88 80 04 	btst  %g2, %g4
 60022e0:	12 bf ff fe 	bne  60022d8 <ONFI_ReadPage+0x100>
 60022e4:	05 00 00 0c 	sethi  %hi(0x3000), %g2
 60022e8:	84 10 a0 20 	or  %g2, 0x20, %g2	! 3020 <data_start+0x3020>
 60022ec:	c4 20 c0 00 	st  %g2, [ %g3 ]
 60022f0:	09 10 00 00 	sethi  %hi(0x40000000), %g4
 60022f4:	c4 00 60 08 	ld  [ %g1 + 8 ], %g2
 60022f8:	80 88 80 04 	btst  %g2, %g4
 60022fc:	12 bf ff fe 	bne  60022f4 <ONFI_ReadPage+0x11c>
 6002300:	1b 03 40 00 	sethi  %hi(0xd000000), %o5
 6002304:	c4 03 60 00 	ld  [ %o5 ], %g2
 6002308:	09 01 80 1c 	sethi  %hi(0x6007000), %g4
 600230c:	88 11 23 80 	or  %g4, 0x380, %g4	! 6007380 <tWB>
 6002310:	c4 09 00 02 	ldub  [ %g4 + %g2 ], %g2
 6002314:	85 28 a0 08 	sll  %g2, 8, %g2
 6002318:	84 10 a0 84 	or  %g2, 0x84, %g2
 600231c:	c4 20 c0 00 	st  %g2, [ %g3 ]
 6002320:	09 10 00 00 	sethi  %hi(0x40000000), %g4
 6002324:	c4 00 60 08 	ld  [ %g1 + 8 ], %g2
 6002328:	80 88 80 04 	btst  %g2, %g4
 600232c:	12 bf ff fe 	bne  6002324 <ONFI_ReadPage+0x14c>
 6002330:	05 00 03 00 	sethi  %hi(0xc0000), %g2
 6002334:	84 10 a0 44 	or  %g2, 0x44, %g2	! c0044 <RAM_LENGTH+0xb9044>
 6002338:	c4 20 c0 00 	st  %g2, [ %g3 ]
 600233c:	09 10 00 00 	sethi  %hi(0x40000000), %g4
 6002340:	c4 00 60 08 	ld  [ %g1 + 8 ], %g2
 6002344:	80 88 80 04 	btst  %g2, %g4
 6002348:	12 bf ff fe 	bne  6002340 <ONFI_ReadPage+0x168>
 600234c:	01 00 00 00 	nop 
 6002350:	c4 03 60 00 	ld  [ %o5 ], %g2
 6002354:	09 01 80 1c 	sethi  %hi(0x6007000), %g4
 6002358:	88 11 23 90 	or  %g4, 0x390, %g4	! 6007390 <tRR>
 600235c:	c4 09 00 02 	ldub  [ %g4 + %g2 ], %g2
 6002360:	85 28 a0 08 	sll  %g2, 8, %g2
 6002364:	84 10 a0 84 	or  %g2, 0x84, %g2
 6002368:	c4 20 c0 00 	st  %g2, [ %g3 ]
 600236c:	07 10 00 00 	sethi  %hi(0x40000000), %g3
 6002370:	c4 00 60 08 	ld  [ %g1 + 8 ], %g2
 6002374:	80 88 80 03 	btst  %g2, %g3
 6002378:	12 bf ff fe 	bne  6002370 <ONFI_ReadPage+0x198>
 600237c:	01 00 00 00 	nop 
 6002380:	81 c7 e0 08 	ret 
 6002384:	81 e8 00 00 	restore 

06002388 <ONFI_ReadCacheSequential>:
 6002388:	9d e3 bf a0 	save  %sp, -96, %sp
 600238c:	03 03 40 00 	sethi  %hi(0xd000000), %g1
 6002390:	c2 00 60 10 	ld  [ %g1 + 0x10 ], %g1	! d000010 <nfcReg>
 6002394:	07 00 00 3f 	sethi  %hi(0xfc00), %g3
 6002398:	86 10 e3 ff 	or  %g3, 0x3ff, %g3	! ffff <RAM_LENGTH+0x8fff>
 600239c:	c4 00 60 8c 	ld  [ %g1 + 0x8c ], %g2
 60023a0:	84 08 80 03 	and  %g2, %g3, %g2
 60023a4:	80 a0 a0 03 	cmp  %g2, 3
 60023a8:	08 bf ff fd 	bleu  600239c <ONFI_ReadCacheSequential+0x14>
 60023ac:	05 03 40 00 	sethi  %hi(0xd000000), %g2
 60023b0:	c8 00 a0 38 	ld  [ %g2 + 0x38 ], %g4	! d000038 <nfcCmd>
 60023b4:	05 00 00 0c 	sethi  %hi(0x3000), %g2
 60023b8:	84 10 a1 20 	or  %g2, 0x120, %g2	! 3120 <data_start+0x3120>
 60023bc:	07 10 00 00 	sethi  %hi(0x40000000), %g3
 60023c0:	c4 21 00 00 	st  %g2, [ %g4 ]
 60023c4:	c4 00 60 08 	ld  [ %g1 + 8 ], %g2
 60023c8:	80 88 80 03 	btst  %g2, %g3
 60023cc:	12 bf ff fe 	bne  60023c4 <ONFI_ReadCacheSequential+0x3c>
 60023d0:	1b 03 40 00 	sethi  %hi(0xd000000), %o5
 60023d4:	c4 03 60 00 	ld  [ %o5 ], %g2
 60023d8:	07 01 80 1c 	sethi  %hi(0x6007000), %g3
 60023dc:	86 10 e3 80 	or  %g3, 0x380, %g3	! 6007380 <tWB>
 60023e0:	c4 08 c0 02 	ldub  [ %g3 + %g2 ], %g2
 60023e4:	85 28 a0 08 	sll  %g2, 8, %g2
 60023e8:	84 10 a0 84 	or  %g2, 0x84, %g2
 60023ec:	c4 21 00 00 	st  %g2, [ %g4 ]
 60023f0:	07 10 00 00 	sethi  %hi(0x40000000), %g3
 60023f4:	c4 00 60 08 	ld  [ %g1 + 8 ], %g2
 60023f8:	80 88 80 03 	btst  %g2, %g3
 60023fc:	12 bf ff fe 	bne  60023f4 <ONFI_ReadCacheSequential+0x6c>
 6002400:	05 00 01 00 	sethi  %hi(0x40000), %g2
 6002404:	84 10 a0 44 	or  %g2, 0x44, %g2	! 40044 <RAM_LENGTH+0x39044>
 6002408:	c4 21 00 00 	st  %g2, [ %g4 ]
 600240c:	07 10 00 00 	sethi  %hi(0x40000000), %g3
 6002410:	c4 00 60 08 	ld  [ %g1 + 8 ], %g2
 6002414:	80 88 80 03 	btst  %g2, %g3
 6002418:	12 bf ff fe 	bne  6002410 <ONFI_ReadCacheSequential+0x88>
 600241c:	01 00 00 00 	nop 
 6002420:	c4 03 60 00 	ld  [ %o5 ], %g2
 6002424:	07 01 80 1c 	sethi  %hi(0x6007000), %g3
 6002428:	86 10 e3 90 	or  %g3, 0x390, %g3	! 6007390 <tRR>
 600242c:	c4 08 c0 02 	ldub  [ %g3 + %g2 ], %g2
 6002430:	85 28 a0 08 	sll  %g2, 8, %g2
 6002434:	84 10 a0 84 	or  %g2, 0x84, %g2
 6002438:	c4 21 00 00 	st  %g2, [ %g4 ]
 600243c:	07 10 00 00 	sethi  %hi(0x40000000), %g3
 6002440:	c4 00 60 08 	ld  [ %g1 + 8 ], %g2
 6002444:	80 88 80 03 	btst  %g2, %g3
 6002448:	12 bf ff fe 	bne  6002440 <ONFI_ReadCacheSequential+0xb8>
 600244c:	01 00 00 00 	nop 
 6002450:	81 c7 e0 08 	ret 
 6002454:	81 e8 00 00 	restore 

06002458 <ONFI_ReadPageCacheRandom>:
 6002458:	9d e3 bf a0 	save  %sp, -96, %sp
 600245c:	03 03 40 00 	sethi  %hi(0xd000000), %g1
 6002460:	c2 00 60 10 	ld  [ %g1 + 0x10 ], %g1	! d000010 <nfcReg>
 6002464:	07 00 00 3f 	sethi  %hi(0xfc00), %g3
 6002468:	86 10 e3 ff 	or  %g3, 0x3ff, %g3	! ffff <RAM_LENGTH+0x8fff>
 600246c:	c4 00 60 8c 	ld  [ %g1 + 0x8c ], %g2
 6002470:	84 08 80 03 	and  %g2, %g3, %g2
 6002474:	80 a0 a0 09 	cmp  %g2, 9
 6002478:	08 bf ff fd 	bleu  600246c <ONFI_ReadPageCacheRandom+0x14>
 600247c:	05 03 40 00 	sethi  %hi(0xd000000), %g2
 6002480:	c6 00 a0 38 	ld  [ %g2 + 0x38 ], %g3	! d000038 <nfcCmd>
 6002484:	84 10 20 20 	mov  0x20, %g2
 6002488:	09 10 00 00 	sethi  %hi(0x40000000), %g4
 600248c:	c4 20 c0 00 	st  %g2, [ %g3 ]
 6002490:	c4 00 60 08 	ld  [ %g1 + 8 ], %g2
 6002494:	80 88 80 04 	btst  %g2, %g4
 6002498:	12 bf ff fe 	bne  6002490 <ONFI_ReadPageCacheRandom+0x38>
 600249c:	05 00 00 3f 	sethi  %hi(0xfc00), %g2
 60024a0:	b3 2e 60 10 	sll  %i1, 0x10, %i1
 60024a4:	89 36 60 08 	srl  %i1, 8, %g4
 60024a8:	84 10 a3 ff 	or  %g2, 0x3ff, %g2
 60024ac:	84 09 00 02 	and  %g4, %g2, %g2
 60024b0:	84 10 a0 21 	or  %g2, 0x21, %g2
 60024b4:	c4 20 c0 00 	st  %g2, [ %g3 ]
 60024b8:	09 10 00 00 	sethi  %hi(0x40000000), %g4
 60024bc:	c4 00 60 08 	ld  [ %g1 + 8 ], %g2
 60024c0:	80 88 80 04 	btst  %g2, %g4
 60024c4:	12 bf ff fe 	bne  60024bc <ONFI_ReadPageCacheRandom+0x64>
 60024c8:	01 00 00 00 	nop 
 60024cc:	b3 36 60 18 	srl  %i1, 0x18, %i1
 60024d0:	b3 2e 60 08 	sll  %i1, 8, %i1
 60024d4:	b2 16 60 21 	or  %i1, 0x21, %i1
 60024d8:	f2 20 c0 00 	st  %i1, [ %g3 ]
 60024dc:	09 10 00 00 	sethi  %hi(0x40000000), %g4
 60024e0:	c4 00 60 08 	ld  [ %g1 + 8 ], %g2
 60024e4:	80 88 80 04 	btst  %g2, %g4
 60024e8:	12 bf ff fe 	bne  60024e0 <ONFI_ReadPageCacheRandom+0x88>
 60024ec:	05 00 00 3f 	sethi  %hi(0xfc00), %g2
 60024f0:	89 2e 20 08 	sll  %i0, 8, %g4
 60024f4:	84 10 a3 ff 	or  %g2, 0x3ff, %g2
 60024f8:	84 09 00 02 	and  %g4, %g2, %g2
 60024fc:	84 10 a0 21 	or  %g2, 0x21, %g2
 6002500:	c4 20 c0 00 	st  %g2, [ %g3 ]
 6002504:	09 10 00 00 	sethi  %hi(0x40000000), %g4
 6002508:	c4 00 60 08 	ld  [ %g1 + 8 ], %g2
 600250c:	80 88 80 04 	btst  %g2, %g4
 6002510:	12 bf ff fe 	bne  6002508 <ONFI_ReadPageCacheRandom+0xb0>
 6002514:	05 00 00 3f 	sethi  %hi(0xfc00), %g2
 6002518:	84 10 a3 00 	or  %g2, 0x300, %g2	! ff00 <RAM_LENGTH+0x8f00>
 600251c:	84 0e 00 02 	and  %i0, %g2, %g2
 6002520:	84 10 a0 21 	or  %g2, 0x21, %g2
 6002524:	c4 20 c0 00 	st  %g2, [ %g3 ]
 6002528:	09 10 00 00 	sethi  %hi(0x40000000), %g4
 600252c:	c4 00 60 08 	ld  [ %g1 + 8 ], %g2
 6002530:	80 88 80 04 	btst  %g2, %g4
 6002534:	12 bf ff fe 	bne  600252c <ONFI_ReadPageCacheRandom+0xd4>
 6002538:	05 00 00 3f 	sethi  %hi(0xfc00), %g2
 600253c:	b1 36 20 10 	srl  %i0, 0x10, %i0
 6002540:	b1 2e 20 08 	sll  %i0, 8, %i0
 6002544:	84 10 a3 ff 	or  %g2, 0x3ff, %g2
 6002548:	84 0e 00 02 	and  %i0, %g2, %g2
 600254c:	84 10 a0 21 	or  %g2, 0x21, %g2
 6002550:	c4 20 c0 00 	st  %g2, [ %g3 ]
 6002554:	09 10 00 00 	sethi  %hi(0x40000000), %g4
 6002558:	c4 00 60 08 	ld  [ %g1 + 8 ], %g2
 600255c:	80 88 80 04 	btst  %g2, %g4
 6002560:	12 bf ff fe 	bne  6002558 <ONFI_ReadPageCacheRandom+0x100>
 6002564:	05 00 00 0c 	sethi  %hi(0x3000), %g2
 6002568:	84 10 a1 20 	or  %g2, 0x120, %g2	! 3120 <data_start+0x3120>
 600256c:	c4 20 c0 00 	st  %g2, [ %g3 ]
 6002570:	09 10 00 00 	sethi  %hi(0x40000000), %g4
 6002574:	c4 00 60 08 	ld  [ %g1 + 8 ], %g2
 6002578:	80 88 80 04 	btst  %g2, %g4
 600257c:	12 bf ff fe 	bne  6002574 <ONFI_ReadPageCacheRandom+0x11c>
 6002580:	1b 03 40 00 	sethi  %hi(0xd000000), %o5
 6002584:	c4 03 60 00 	ld  [ %o5 ], %g2
 6002588:	09 01 80 1c 	sethi  %hi(0x6007000), %g4
 600258c:	88 11 23 80 	or  %g4, 0x380, %g4	! 6007380 <tWB>
 6002590:	c4 09 00 02 	ldub  [ %g4 + %g2 ], %g2
 6002594:	85 28 a0 08 	sll  %g2, 8, %g2
 6002598:	84 10 a0 84 	or  %g2, 0x84, %g2
 600259c:	c4 20 c0 00 	st  %g2, [ %g3 ]
 60025a0:	09 10 00 00 	sethi  %hi(0x40000000), %g4
 60025a4:	c4 00 60 08 	ld  [ %g1 + 8 ], %g2
 60025a8:	80 88 80 04 	btst  %g2, %g4
 60025ac:	12 bf ff fe 	bne  60025a4 <ONFI_ReadPageCacheRandom+0x14c>
 60025b0:	05 00 01 00 	sethi  %hi(0x40000), %g2
 60025b4:	84 10 a0 44 	or  %g2, 0x44, %g2	! 40044 <RAM_LENGTH+0x39044>
 60025b8:	c4 20 c0 00 	st  %g2, [ %g3 ]
 60025bc:	09 10 00 00 	sethi  %hi(0x40000000), %g4
 60025c0:	c4 00 60 08 	ld  [ %g1 + 8 ], %g2
 60025c4:	80 88 80 04 	btst  %g2, %g4
 60025c8:	12 bf ff fe 	bne  60025c0 <ONFI_ReadPageCacheRandom+0x168>
 60025cc:	01 00 00 00 	nop 
 60025d0:	c4 03 60 00 	ld  [ %o5 ], %g2
 60025d4:	09 01 80 1c 	sethi  %hi(0x6007000), %g4
 60025d8:	88 11 23 90 	or  %g4, 0x390, %g4	! 6007390 <tRR>
 60025dc:	c4 09 00 02 	ldub  [ %g4 + %g2 ], %g2
 60025e0:	85 28 a0 08 	sll  %g2, 8, %g2
 60025e4:	84 10 a0 84 	or  %g2, 0x84, %g2
 60025e8:	c4 20 c0 00 	st  %g2, [ %g3 ]
 60025ec:	07 10 00 00 	sethi  %hi(0x40000000), %g3
 60025f0:	c4 00 60 08 	ld  [ %g1 + 8 ], %g2
 60025f4:	80 88 80 03 	btst  %g2, %g3
 60025f8:	12 bf ff fe 	bne  60025f0 <ONFI_ReadPageCacheRandom+0x198>
 60025fc:	01 00 00 00 	nop 
 6002600:	81 c7 e0 08 	ret 
 6002604:	81 e8 00 00 	restore 

06002608 <ONFI_ReadCacheLast>:
 6002608:	9d e3 bf a0 	save  %sp, -96, %sp
 600260c:	03 03 40 00 	sethi  %hi(0xd000000), %g1
 6002610:	c2 00 60 10 	ld  [ %g1 + 0x10 ], %g1	! d000010 <nfcReg>
 6002614:	07 00 00 3f 	sethi  %hi(0xfc00), %g3
 6002618:	86 10 e3 ff 	or  %g3, 0x3ff, %g3	! ffff <RAM_LENGTH+0x8fff>
 600261c:	c4 00 60 8c 	ld  [ %g1 + 0x8c ], %g2
 6002620:	84 08 80 03 	and  %g2, %g3, %g2
 6002624:	80 a0 a0 03 	cmp  %g2, 3
 6002628:	08 bf ff fd 	bleu  600261c <ONFI_ReadCacheLast+0x14>
 600262c:	05 03 40 00 	sethi  %hi(0xd000000), %g2
 6002630:	c8 00 a0 38 	ld  [ %g2 + 0x38 ], %g4	! d000038 <nfcCmd>
 6002634:	05 00 00 0f 	sethi  %hi(0x3c00), %g2
 6002638:	84 10 a3 20 	or  %g2, 0x320, %g2	! 3f20 <data_start+0x3f20>
 600263c:	07 10 00 00 	sethi  %hi(0x40000000), %g3
 6002640:	c4 21 00 00 	st  %g2, [ %g4 ]
 6002644:	c4 00 60 08 	ld  [ %g1 + 8 ], %g2
 6002648:	80 88 80 03 	btst  %g2, %g3
 600264c:	12 bf ff fe 	bne  6002644 <ONFI_ReadCacheLast+0x3c>
 6002650:	1b 03 40 00 	sethi  %hi(0xd000000), %o5
 6002654:	c4 03 60 00 	ld  [ %o5 ], %g2
 6002658:	07 01 80 1c 	sethi  %hi(0x6007000), %g3
 600265c:	86 10 e3 80 	or  %g3, 0x380, %g3	! 6007380 <tWB>
 6002660:	c4 08 c0 02 	ldub  [ %g3 + %g2 ], %g2
 6002664:	85 28 a0 08 	sll  %g2, 8, %g2
 6002668:	84 10 a0 84 	or  %g2, 0x84, %g2
 600266c:	c4 21 00 00 	st  %g2, [ %g4 ]
 6002670:	07 10 00 00 	sethi  %hi(0x40000000), %g3
 6002674:	c4 00 60 08 	ld  [ %g1 + 8 ], %g2
 6002678:	80 88 80 03 	btst  %g2, %g3
 600267c:	12 bf ff fe 	bne  6002674 <ONFI_ReadCacheLast+0x6c>
 6002680:	05 00 03 00 	sethi  %hi(0xc0000), %g2
 6002684:	84 10 a0 44 	or  %g2, 0x44, %g2	! c0044 <RAM_LENGTH+0xb9044>
 6002688:	c4 21 00 00 	st  %g2, [ %g4 ]
 600268c:	07 10 00 00 	sethi  %hi(0x40000000), %g3
 6002690:	c4 00 60 08 	ld  [ %g1 + 8 ], %g2
 6002694:	80 88 80 03 	btst  %g2, %g3
 6002698:	12 bf ff fe 	bne  6002690 <ONFI_ReadCacheLast+0x88>
 600269c:	01 00 00 00 	nop 
 60026a0:	c4 03 60 00 	ld  [ %o5 ], %g2
 60026a4:	07 01 80 1c 	sethi  %hi(0x6007000), %g3
 60026a8:	86 10 e3 90 	or  %g3, 0x390, %g3	! 6007390 <tRR>
 60026ac:	c4 08 c0 02 	ldub  [ %g3 + %g2 ], %g2
 60026b0:	85 28 a0 08 	sll  %g2, 8, %g2
 60026b4:	84 10 a0 84 	or  %g2, 0x84, %g2
 60026b8:	c4 21 00 00 	st  %g2, [ %g4 ]
 60026bc:	07 10 00 00 	sethi  %hi(0x40000000), %g3
 60026c0:	c4 00 60 08 	ld  [ %g1 + 8 ], %g2
 60026c4:	80 88 80 03 	btst  %g2, %g3
 60026c8:	12 bf ff fe 	bne  60026c0 <ONFI_ReadCacheLast+0xb8>
 60026cc:	01 00 00 00 	nop 
 60026d0:	81 c7 e0 08 	ret 
 60026d4:	81 e8 00 00 	restore 

060026d8 <ONFI_ReadPageMultiPlane>:
 60026d8:	03 03 40 00 	sethi  %hi(0xd000000), %g1
 60026dc:	c2 00 60 10 	ld  [ %g1 + 0x10 ], %g1	! d000010 <nfcReg>
 60026e0:	07 00 00 3f 	sethi  %hi(0xfc00), %g3
 60026e4:	86 10 e3 ff 	or  %g3, 0x3ff, %g3	! ffff <RAM_LENGTH+0x8fff>
 60026e8:	c4 00 60 8c 	ld  [ %g1 + 0x8c ], %g2
 60026ec:	84 08 80 03 	and  %g2, %g3, %g2
 60026f0:	80 a0 a0 09 	cmp  %g2, 9
 60026f4:	08 bf ff fd 	bleu  60026e8 <ONFI_ReadPageMultiPlane+0x10>
 60026f8:	05 03 40 00 	sethi  %hi(0xd000000), %g2
 60026fc:	c6 00 a0 38 	ld  [ %g2 + 0x38 ], %g3	! d000038 <nfcCmd>
 6002700:	84 10 20 20 	mov  0x20, %g2
 6002704:	09 10 00 00 	sethi  %hi(0x40000000), %g4
 6002708:	c4 20 c0 00 	st  %g2, [ %g3 ]
 600270c:	c4 00 60 08 	ld  [ %g1 + 8 ], %g2
 6002710:	80 88 80 04 	btst  %g2, %g4
 6002714:	12 bf ff fe 	bne  600270c <ONFI_ReadPageMultiPlane+0x34>
 6002718:	05 00 00 3f 	sethi  %hi(0xfc00), %g2
 600271c:	93 2a 60 10 	sll  %o1, 0x10, %o1
 6002720:	89 32 60 08 	srl  %o1, 8, %g4
 6002724:	84 10 a3 ff 	or  %g2, 0x3ff, %g2
 6002728:	84 09 00 02 	and  %g4, %g2, %g2
 600272c:	84 10 a0 21 	or  %g2, 0x21, %g2
 6002730:	c4 20 c0 00 	st  %g2, [ %g3 ]
 6002734:	09 10 00 00 	sethi  %hi(0x40000000), %g4
 6002738:	c4 00 60 08 	ld  [ %g1 + 8 ], %g2
 600273c:	80 88 80 04 	btst  %g2, %g4
 6002740:	12 bf ff fe 	bne  6002738 <ONFI_ReadPageMultiPlane+0x60>
 6002744:	01 00 00 00 	nop 
 6002748:	93 32 60 18 	srl  %o1, 0x18, %o1
 600274c:	93 2a 60 08 	sll  %o1, 8, %o1
 6002750:	92 12 60 21 	or  %o1, 0x21, %o1
 6002754:	d2 20 c0 00 	st  %o1, [ %g3 ]
 6002758:	09 10 00 00 	sethi  %hi(0x40000000), %g4
 600275c:	c4 00 60 08 	ld  [ %g1 + 8 ], %g2
 6002760:	80 88 80 04 	btst  %g2, %g4
 6002764:	12 bf ff fe 	bne  600275c <ONFI_ReadPageMultiPlane+0x84>
 6002768:	05 00 00 3f 	sethi  %hi(0xfc00), %g2
 600276c:	89 2a 20 08 	sll  %o0, 8, %g4
 6002770:	84 10 a3 ff 	or  %g2, 0x3ff, %g2
 6002774:	84 09 00 02 	and  %g4, %g2, %g2
 6002778:	84 10 a0 21 	or  %g2, 0x21, %g2
 600277c:	c4 20 c0 00 	st  %g2, [ %g3 ]
 6002780:	09 10 00 00 	sethi  %hi(0x40000000), %g4
 6002784:	c4 00 60 08 	ld  [ %g1 + 8 ], %g2
 6002788:	80 88 80 04 	btst  %g2, %g4
 600278c:	12 bf ff fe 	bne  6002784 <ONFI_ReadPageMultiPlane+0xac>
 6002790:	05 00 00 3f 	sethi  %hi(0xfc00), %g2
 6002794:	84 10 a3 00 	or  %g2, 0x300, %g2	! ff00 <RAM_LENGTH+0x8f00>
 6002798:	84 0a 00 02 	and  %o0, %g2, %g2
 600279c:	84 10 a0 21 	or  %g2, 0x21, %g2
 60027a0:	c4 20 c0 00 	st  %g2, [ %g3 ]
 60027a4:	09 10 00 00 	sethi  %hi(0x40000000), %g4
 60027a8:	c4 00 60 08 	ld  [ %g1 + 8 ], %g2
 60027ac:	80 88 80 04 	btst  %g2, %g4
 60027b0:	12 bf ff fe 	bne  60027a8 <ONFI_ReadPageMultiPlane+0xd0>
 60027b4:	05 00 00 3f 	sethi  %hi(0xfc00), %g2
 60027b8:	91 32 20 10 	srl  %o0, 0x10, %o0
 60027bc:	91 2a 20 08 	sll  %o0, 8, %o0
 60027c0:	84 10 a3 ff 	or  %g2, 0x3ff, %g2
 60027c4:	84 0a 00 02 	and  %o0, %g2, %g2
 60027c8:	84 10 a0 21 	or  %g2, 0x21, %g2
 60027cc:	c4 20 c0 00 	st  %g2, [ %g3 ]
 60027d0:	09 10 00 00 	sethi  %hi(0x40000000), %g4
 60027d4:	c4 00 60 08 	ld  [ %g1 + 8 ], %g2
 60027d8:	80 88 80 04 	btst  %g2, %g4
 60027dc:	12 bf ff fe 	bne  60027d4 <ONFI_ReadPageMultiPlane+0xfc>
 60027e0:	05 00 00 0c 	sethi  %hi(0x3000), %g2
 60027e4:	84 10 a2 20 	or  %g2, 0x220, %g2	! 3220 <data_start+0x3220>
 60027e8:	c4 20 c0 00 	st  %g2, [ %g3 ]
 60027ec:	09 10 00 00 	sethi  %hi(0x40000000), %g4
 60027f0:	c4 00 60 08 	ld  [ %g1 + 8 ], %g2
 60027f4:	80 88 80 04 	btst  %g2, %g4
 60027f8:	12 bf ff fe 	bne  60027f0 <ONFI_ReadPageMultiPlane+0x118>
 60027fc:	05 03 40 00 	sethi  %hi(0xd000000), %g2
 6002800:	c4 00 a0 00 	ld  [ %g2 ], %g2
 6002804:	09 01 80 1c 	sethi  %hi(0x6007000), %g4
 6002808:	88 11 23 80 	or  %g4, 0x380, %g4	! 6007380 <tWB>
 600280c:	c4 09 00 02 	ldub  [ %g4 + %g2 ], %g2
 6002810:	85 28 a0 08 	sll  %g2, 8, %g2
 6002814:	84 10 a0 84 	or  %g2, 0x84, %g2
 6002818:	c4 20 c0 00 	st  %g2, [ %g3 ]
 600281c:	09 10 00 00 	sethi  %hi(0x40000000), %g4
 6002820:	c4 00 60 08 	ld  [ %g1 + 8 ], %g2
 6002824:	80 88 80 04 	btst  %g2, %g4
 6002828:	12 bf ff fe 	bne  6002820 <ONFI_ReadPageMultiPlane+0x148>
 600282c:	05 00 01 00 	sethi  %hi(0x40000), %g2
 6002830:	84 10 a0 44 	or  %g2, 0x44, %g2	! 40044 <RAM_LENGTH+0x39044>
 6002834:	c4 20 c0 00 	st  %g2, [ %g3 ]
 6002838:	07 10 00 00 	sethi  %hi(0x40000000), %g3
 600283c:	c4 00 60 08 	ld  [ %g1 + 8 ], %g2
 6002840:	80 88 80 03 	btst  %g2, %g3
 6002844:	12 bf ff fe 	bne  600283c <ONFI_ReadPageMultiPlane+0x164>
 6002848:	01 00 00 00 	nop 
 600284c:	81 c3 e0 08 	retl 
 6002850:	01 00 00 00 	nop 

06002854 <ONFI_ProgramPage>:
 6002854:	03 03 40 00 	sethi  %hi(0xd000000), %g1
 6002858:	c2 00 60 10 	ld  [ %g1 + 0x10 ], %g1	! d000010 <nfcReg>
 600285c:	07 00 00 3f 	sethi  %hi(0xfc00), %g3
 6002860:	86 10 e3 ff 	or  %g3, 0x3ff, %g3	! ffff <RAM_LENGTH+0x8fff>
 6002864:	c4 00 60 8c 	ld  [ %g1 + 0x8c ], %g2
 6002868:	84 08 80 03 	and  %g2, %g3, %g2
 600286c:	80 a0 a0 06 	cmp  %g2, 6
 6002870:	08 bf ff fd 	bleu  6002864 <ONFI_ProgramPage+0x10>
 6002874:	05 03 40 00 	sethi  %hi(0xd000000), %g2
 6002878:	c8 00 a0 38 	ld  [ %g2 + 0x38 ], %g4	! d000038 <nfcCmd>
 600287c:	05 00 00 20 	sethi  %hi(0x8000), %g2
 6002880:	84 10 a0 20 	or  %g2, 0x20, %g2	! 8020 <RAM_LENGTH+0x1020>
 6002884:	07 10 00 00 	sethi  %hi(0x40000000), %g3
 6002888:	c4 21 00 00 	st  %g2, [ %g4 ]
 600288c:	c4 00 60 08 	ld  [ %g1 + 8 ], %g2
 6002890:	80 88 80 03 	btst  %g2, %g3
 6002894:	12 bf ff fe 	bne  600288c <ONFI_ProgramPage+0x38>
 6002898:	05 00 00 3f 	sethi  %hi(0xfc00), %g2
 600289c:	93 2a 60 10 	sll  %o1, 0x10, %o1
 60028a0:	87 32 60 08 	srl  %o1, 8, %g3
 60028a4:	84 10 a3 ff 	or  %g2, 0x3ff, %g2
 60028a8:	84 08 c0 02 	and  %g3, %g2, %g2
 60028ac:	84 10 a0 21 	or  %g2, 0x21, %g2
 60028b0:	c4 21 00 00 	st  %g2, [ %g4 ]
 60028b4:	07 10 00 00 	sethi  %hi(0x40000000), %g3
 60028b8:	c4 00 60 08 	ld  [ %g1 + 8 ], %g2
 60028bc:	80 88 80 03 	btst  %g2, %g3
 60028c0:	12 bf ff fe 	bne  60028b8 <ONFI_ProgramPage+0x64>
 60028c4:	01 00 00 00 	nop 
 60028c8:	93 32 60 18 	srl  %o1, 0x18, %o1
 60028cc:	93 2a 60 08 	sll  %o1, 8, %o1
 60028d0:	92 12 60 21 	or  %o1, 0x21, %o1
 60028d4:	d2 21 00 00 	st  %o1, [ %g4 ]
 60028d8:	07 10 00 00 	sethi  %hi(0x40000000), %g3
 60028dc:	c4 00 60 08 	ld  [ %g1 + 8 ], %g2
 60028e0:	80 88 80 03 	btst  %g2, %g3
 60028e4:	12 bf ff fe 	bne  60028dc <ONFI_ProgramPage+0x88>
 60028e8:	05 00 00 3f 	sethi  %hi(0xfc00), %g2
 60028ec:	87 2a 20 08 	sll  %o0, 8, %g3
 60028f0:	84 10 a3 ff 	or  %g2, 0x3ff, %g2
 60028f4:	84 08 c0 02 	and  %g3, %g2, %g2
 60028f8:	84 10 a0 21 	or  %g2, 0x21, %g2
 60028fc:	c4 21 00 00 	st  %g2, [ %g4 ]
 6002900:	07 10 00 00 	sethi  %hi(0x40000000), %g3
 6002904:	c4 00 60 08 	ld  [ %g1 + 8 ], %g2
 6002908:	80 88 80 03 	btst  %g2, %g3
 600290c:	12 bf ff fe 	bne  6002904 <ONFI_ProgramPage+0xb0>
 6002910:	05 00 00 3f 	sethi  %hi(0xfc00), %g2
 6002914:	84 10 a3 00 	or  %g2, 0x300, %g2	! ff00 <RAM_LENGTH+0x8f00>
 6002918:	84 0a 00 02 	and  %o0, %g2, %g2
 600291c:	84 10 a0 21 	or  %g2, 0x21, %g2
 6002920:	c4 21 00 00 	st  %g2, [ %g4 ]
 6002924:	07 10 00 00 	sethi  %hi(0x40000000), %g3
 6002928:	c4 00 60 08 	ld  [ %g1 + 8 ], %g2
 600292c:	80 88 80 03 	btst  %g2, %g3
 6002930:	12 bf ff fe 	bne  6002928 <ONFI_ProgramPage+0xd4>
 6002934:	05 00 00 3f 	sethi  %hi(0xfc00), %g2
 6002938:	91 32 20 10 	srl  %o0, 0x10, %o0
 600293c:	91 2a 20 08 	sll  %o0, 8, %o0
 6002940:	84 10 a3 ff 	or  %g2, 0x3ff, %g2
 6002944:	84 0a 00 02 	and  %o0, %g2, %g2
 6002948:	84 10 a0 21 	or  %g2, 0x21, %g2
 600294c:	c4 21 00 00 	st  %g2, [ %g4 ]
 6002950:	07 10 00 00 	sethi  %hi(0x40000000), %g3
 6002954:	c4 00 60 08 	ld  [ %g1 + 8 ], %g2
 6002958:	80 88 80 03 	btst  %g2, %g3
 600295c:	12 bf ff fe 	bne  6002954 <ONFI_ProgramPage+0x100>
 6002960:	05 03 40 00 	sethi  %hi(0xd000000), %g2
 6002964:	c4 00 a0 00 	ld  [ %g2 ], %g2
 6002968:	07 01 80 1c 	sethi  %hi(0x6007000), %g3
 600296c:	86 10 e3 88 	or  %g3, 0x388, %g3	! 6007388 <tADL>
 6002970:	c4 08 c0 02 	ldub  [ %g3 + %g2 ], %g2
 6002974:	85 28 a0 08 	sll  %g2, 8, %g2
 6002978:	84 10 a0 84 	or  %g2, 0x84, %g2
 600297c:	c4 21 00 00 	st  %g2, [ %g4 ]
 6002980:	07 10 00 00 	sethi  %hi(0x40000000), %g3
 6002984:	c4 00 60 08 	ld  [ %g1 + 8 ], %g2
 6002988:	80 88 80 03 	btst  %g2, %g3
 600298c:	12 bf ff fe 	bne  6002984 <ONFI_ProgramPage+0x130>
 6002990:	01 00 00 00 	nop 
 6002994:	81 c3 e0 08 	retl 
 6002998:	01 00 00 00 	nop 

0600299c <ONFI_ProgramPage_end>:
 600299c:	9d e3 bf a0 	save  %sp, -96, %sp
 60029a0:	03 03 40 00 	sethi  %hi(0xd000000), %g1
 60029a4:	c2 00 60 10 	ld  [ %g1 + 0x10 ], %g1	! d000010 <nfcReg>
 60029a8:	07 00 00 3f 	sethi  %hi(0xfc00), %g3
 60029ac:	86 10 e3 ff 	or  %g3, 0x3ff, %g3	! ffff <RAM_LENGTH+0x8fff>
 60029b0:	c4 00 60 8c 	ld  [ %g1 + 0x8c ], %g2
 60029b4:	84 08 80 03 	and  %g2, %g3, %g2
 60029b8:	80 a0 a0 03 	cmp  %g2, 3
 60029bc:	08 bf ff fd 	bleu  60029b0 <ONFI_ProgramPage_end+0x14>
 60029c0:	05 03 40 00 	sethi  %hi(0xd000000), %g2
 60029c4:	c8 00 a0 38 	ld  [ %g2 + 0x38 ], %g4	! d000038 <nfcCmd>
 60029c8:	05 00 00 04 	sethi  %hi(0x1000), %g2
 60029cc:	84 10 a0 20 	or  %g2, 0x20, %g2	! 1020 <data_start+0x1020>
 60029d0:	07 10 00 00 	sethi  %hi(0x40000000), %g3
 60029d4:	c4 21 00 00 	st  %g2, [ %g4 ]
 60029d8:	c4 00 60 08 	ld  [ %g1 + 8 ], %g2
 60029dc:	80 88 80 03 	btst  %g2, %g3
 60029e0:	12 bf ff fe 	bne  60029d8 <ONFI_ProgramPage_end+0x3c>
 60029e4:	19 03 40 00 	sethi  %hi(0xd000000), %o4
 60029e8:	c4 03 20 00 	ld  [ %o4 ], %g2
 60029ec:	1b 01 80 1c 	sethi  %hi(0x6007000), %o5
 60029f0:	9a 13 63 80 	or  %o5, 0x380, %o5	! 6007380 <tWB>
 60029f4:	c4 0b 40 02 	ldub  [ %o5 + %g2 ], %g2
 60029f8:	85 28 a0 08 	sll  %g2, 8, %g2
 60029fc:	84 10 a0 84 	or  %g2, 0x84, %g2
 6002a00:	c4 21 00 00 	st  %g2, [ %g4 ]
 6002a04:	07 10 00 00 	sethi  %hi(0x40000000), %g3
 6002a08:	c4 00 60 08 	ld  [ %g1 + 8 ], %g2
 6002a0c:	80 88 80 03 	btst  %g2, %g3
 6002a10:	12 bf ff fe 	bne  6002a08 <ONFI_ProgramPage_end+0x6c>
 6002a14:	05 00 03 00 	sethi  %hi(0xc0000), %g2
 6002a18:	84 10 a0 44 	or  %g2, 0x44, %g2	! c0044 <RAM_LENGTH+0xb9044>
 6002a1c:	c4 21 00 00 	st  %g2, [ %g4 ]
 6002a20:	07 10 00 00 	sethi  %hi(0x40000000), %g3
 6002a24:	c4 00 60 08 	ld  [ %g1 + 8 ], %g2
 6002a28:	80 88 80 03 	btst  %g2, %g3
 6002a2c:	12 bf ff fe 	bne  6002a24 <ONFI_ProgramPage_end+0x88>
 6002a30:	01 00 00 00 	nop 
 6002a34:	c4 03 20 00 	ld  [ %o4 ], %g2
 6002a38:	c4 0b 40 02 	ldub  [ %o5 + %g2 ], %g2
 6002a3c:	85 28 a0 08 	sll  %g2, 8, %g2
 6002a40:	84 10 a0 84 	or  %g2, 0x84, %g2
 6002a44:	c4 21 00 00 	st  %g2, [ %g4 ]
 6002a48:	07 10 00 00 	sethi  %hi(0x40000000), %g3
 6002a4c:	c4 00 60 08 	ld  [ %g1 + 8 ], %g2
 6002a50:	80 88 80 03 	btst  %g2, %g3
 6002a54:	12 bf ff fe 	bne  6002a4c <ONFI_ProgramPage_end+0xb0>
 6002a58:	01 00 00 00 	nop 
 6002a5c:	81 c7 e0 08 	ret 
 6002a60:	81 e8 00 00 	restore 

06002a64 <ONFI_ProgramPageCache_end>:
 6002a64:	9d e3 bf a0 	save  %sp, -96, %sp
 6002a68:	03 03 40 00 	sethi  %hi(0xd000000), %g1
 6002a6c:	c2 00 60 10 	ld  [ %g1 + 0x10 ], %g1	! d000010 <nfcReg>
 6002a70:	07 00 00 3f 	sethi  %hi(0xfc00), %g3
 6002a74:	86 10 e3 ff 	or  %g3, 0x3ff, %g3	! ffff <RAM_LENGTH+0x8fff>
 6002a78:	c4 00 60 8c 	ld  [ %g1 + 0x8c ], %g2
 6002a7c:	84 08 80 03 	and  %g2, %g3, %g2
 6002a80:	80 a0 a0 03 	cmp  %g2, 3
 6002a84:	08 bf ff fd 	bleu  6002a78 <ONFI_ProgramPageCache_end+0x14>
 6002a88:	05 03 40 00 	sethi  %hi(0xd000000), %g2
 6002a8c:	c8 00 a0 38 	ld  [ %g2 + 0x38 ], %g4	! d000038 <nfcCmd>
 6002a90:	05 00 00 05 	sethi  %hi(0x1400), %g2
 6002a94:	84 10 a1 20 	or  %g2, 0x120, %g2	! 1520 <data_start+0x1520>
 6002a98:	07 10 00 00 	sethi  %hi(0x40000000), %g3
 6002a9c:	c4 21 00 00 	st  %g2, [ %g4 ]
 6002aa0:	c4 00 60 08 	ld  [ %g1 + 8 ], %g2
 6002aa4:	80 88 80 03 	btst  %g2, %g3
 6002aa8:	12 bf ff fe 	bne  6002aa0 <ONFI_ProgramPageCache_end+0x3c>
 6002aac:	19 03 40 00 	sethi  %hi(0xd000000), %o4
 6002ab0:	c4 03 20 00 	ld  [ %o4 ], %g2
 6002ab4:	1b 01 80 1c 	sethi  %hi(0x6007000), %o5
 6002ab8:	9a 13 63 80 	or  %o5, 0x380, %o5	! 6007380 <tWB>
 6002abc:	c4 0b 40 02 	ldub  [ %o5 + %g2 ], %g2
 6002ac0:	85 28 a0 08 	sll  %g2, 8, %g2
 6002ac4:	84 10 a0 84 	or  %g2, 0x84, %g2
 6002ac8:	c4 21 00 00 	st  %g2, [ %g4 ]
 6002acc:	07 10 00 00 	sethi  %hi(0x40000000), %g3
 6002ad0:	c4 00 60 08 	ld  [ %g1 + 8 ], %g2
 6002ad4:	80 88 80 03 	btst  %g2, %g3
 6002ad8:	12 bf ff fe 	bne  6002ad0 <ONFI_ProgramPageCache_end+0x6c>
 6002adc:	05 00 01 00 	sethi  %hi(0x40000), %g2
 6002ae0:	84 10 a0 44 	or  %g2, 0x44, %g2	! 40044 <RAM_LENGTH+0x39044>
 6002ae4:	c4 21 00 00 	st  %g2, [ %g4 ]
 6002ae8:	07 10 00 00 	sethi  %hi(0x40000000), %g3
 6002aec:	c4 00 60 08 	ld  [ %g1 + 8 ], %g2
 6002af0:	80 88 80 03 	btst  %g2, %g3
 6002af4:	12 bf ff fe 	bne  6002aec <ONFI_ProgramPageCache_end+0x88>
 6002af8:	01 00 00 00 	nop 
 6002afc:	c4 03 20 00 	ld  [ %o4 ], %g2
 6002b00:	c4 0b 40 02 	ldub  [ %o5 + %g2 ], %g2
 6002b04:	85 28 a0 08 	sll  %g2, 8, %g2
 6002b08:	84 10 a0 84 	or  %g2, 0x84, %g2
 6002b0c:	c4 21 00 00 	st  %g2, [ %g4 ]
 6002b10:	07 10 00 00 	sethi  %hi(0x40000000), %g3
 6002b14:	c4 00 60 08 	ld  [ %g1 + 8 ], %g2
 6002b18:	80 88 80 03 	btst  %g2, %g3
 6002b1c:	12 bf ff fe 	bne  6002b14 <ONFI_ProgramPageCache_end+0xb0>
 6002b20:	01 00 00 00 	nop 
 6002b24:	81 c7 e0 08 	ret 
 6002b28:	81 e8 00 00 	restore 

06002b2c <ONFI_ProgramPageMultiPlane_end>:
 6002b2c:	9d e3 bf a0 	save  %sp, -96, %sp
 6002b30:	03 03 40 00 	sethi  %hi(0xd000000), %g1
 6002b34:	c2 00 60 10 	ld  [ %g1 + 0x10 ], %g1	! d000010 <nfcReg>
 6002b38:	07 00 00 3f 	sethi  %hi(0xfc00), %g3
 6002b3c:	86 10 e3 ff 	or  %g3, 0x3ff, %g3	! ffff <RAM_LENGTH+0x8fff>
 6002b40:	c4 00 60 8c 	ld  [ %g1 + 0x8c ], %g2
 6002b44:	84 08 80 03 	and  %g2, %g3, %g2
 6002b48:	80 a0 a0 03 	cmp  %g2, 3
 6002b4c:	08 bf ff fd 	bleu  6002b40 <ONFI_ProgramPageMultiPlane_end+0x14>
 6002b50:	05 03 40 00 	sethi  %hi(0xd000000), %g2
 6002b54:	c8 00 a0 38 	ld  [ %g2 + 0x38 ], %g4	! d000038 <nfcCmd>
 6002b58:	05 00 00 04 	sethi  %hi(0x1000), %g2
 6002b5c:	84 10 a1 20 	or  %g2, 0x120, %g2	! 1120 <data_start+0x1120>
 6002b60:	07 10 00 00 	sethi  %hi(0x40000000), %g3
 6002b64:	c4 21 00 00 	st  %g2, [ %g4 ]
 6002b68:	c4 00 60 08 	ld  [ %g1 + 8 ], %g2
 6002b6c:	80 88 80 03 	btst  %g2, %g3
 6002b70:	12 bf ff fe 	bne  6002b68 <ONFI_ProgramPageMultiPlane_end+0x3c>
 6002b74:	19 03 40 00 	sethi  %hi(0xd000000), %o4
 6002b78:	c4 03 20 00 	ld  [ %o4 ], %g2
 6002b7c:	1b 01 80 1c 	sethi  %hi(0x6007000), %o5
 6002b80:	9a 13 63 80 	or  %o5, 0x380, %o5	! 6007380 <tWB>
 6002b84:	c4 0b 40 02 	ldub  [ %o5 + %g2 ], %g2
 6002b88:	85 28 a0 08 	sll  %g2, 8, %g2
 6002b8c:	84 10 a0 84 	or  %g2, 0x84, %g2
 6002b90:	c4 21 00 00 	st  %g2, [ %g4 ]
 6002b94:	07 10 00 00 	sethi  %hi(0x40000000), %g3
 6002b98:	c4 00 60 08 	ld  [ %g1 + 8 ], %g2
 6002b9c:	80 88 80 03 	btst  %g2, %g3
 6002ba0:	12 bf ff fe 	bne  6002b98 <ONFI_ProgramPageMultiPlane_end+0x6c>
 6002ba4:	05 00 01 00 	sethi  %hi(0x40000), %g2
 6002ba8:	84 10 a0 44 	or  %g2, 0x44, %g2	! 40044 <RAM_LENGTH+0x39044>
 6002bac:	c4 21 00 00 	st  %g2, [ %g4 ]
 6002bb0:	07 10 00 00 	sethi  %hi(0x40000000), %g3
 6002bb4:	c4 00 60 08 	ld  [ %g1 + 8 ], %g2
 6002bb8:	80 88 80 03 	btst  %g2, %g3
 6002bbc:	12 bf ff fe 	bne  6002bb4 <ONFI_ProgramPageMultiPlane_end+0x88>
 6002bc0:	01 00 00 00 	nop 
 6002bc4:	c4 03 20 00 	ld  [ %o4 ], %g2
 6002bc8:	c4 0b 40 02 	ldub  [ %o5 + %g2 ], %g2
 6002bcc:	85 28 a0 08 	sll  %g2, 8, %g2
 6002bd0:	84 10 a0 84 	or  %g2, 0x84, %g2
 6002bd4:	c4 21 00 00 	st  %g2, [ %g4 ]
 6002bd8:	07 10 00 00 	sethi  %hi(0x40000000), %g3
 6002bdc:	c4 00 60 08 	ld  [ %g1 + 8 ], %g2
 6002be0:	80 88 80 03 	btst  %g2, %g3
 6002be4:	12 bf ff fe 	bne  6002bdc <ONFI_ProgramPageMultiPlane_end+0xb0>
 6002be8:	01 00 00 00 	nop 
 6002bec:	81 c7 e0 08 	ret 
 6002bf0:	81 e8 00 00 	restore 

06002bf4 <ONFI_EraseBlock>:
 6002bf4:	03 03 40 00 	sethi  %hi(0xd000000), %g1
 6002bf8:	c2 00 60 10 	ld  [ %g1 + 0x10 ], %g1	! d000010 <nfcReg>
 6002bfc:	07 00 00 3f 	sethi  %hi(0xfc00), %g3
 6002c00:	86 10 e3 ff 	or  %g3, 0x3ff, %g3	! ffff <RAM_LENGTH+0x8fff>
 6002c04:	c4 00 60 8c 	ld  [ %g1 + 0x8c ], %g2
 6002c08:	84 08 80 03 	and  %g2, %g3, %g2
 6002c0c:	80 a0 a0 06 	cmp  %g2, 6
 6002c10:	08 bf ff fd 	bleu  6002c04 <ONFI_EraseBlock+0x10>
 6002c14:	05 03 40 00 	sethi  %hi(0xd000000), %g2
 6002c18:	c8 00 a0 38 	ld  [ %g2 + 0x38 ], %g4	! d000038 <nfcCmd>
 6002c1c:	05 00 00 18 	sethi  %hi(0x6000), %g2
 6002c20:	84 10 a0 20 	or  %g2, 0x20, %g2	! 6020 <data_start+0x6020>
 6002c24:	07 10 00 00 	sethi  %hi(0x40000000), %g3
 6002c28:	c4 21 00 00 	st  %g2, [ %g4 ]
 6002c2c:	c4 00 60 08 	ld  [ %g1 + 8 ], %g2
 6002c30:	80 88 80 03 	btst  %g2, %g3
 6002c34:	12 bf ff fe 	bne  6002c2c <ONFI_EraseBlock+0x38>
 6002c38:	05 00 00 3f 	sethi  %hi(0xfc00), %g2
 6002c3c:	87 2a 20 08 	sll  %o0, 8, %g3
 6002c40:	84 10 a3 ff 	or  %g2, 0x3ff, %g2
 6002c44:	84 08 c0 02 	and  %g3, %g2, %g2
 6002c48:	84 10 a0 21 	or  %g2, 0x21, %g2
 6002c4c:	c4 21 00 00 	st  %g2, [ %g4 ]
 6002c50:	07 10 00 00 	sethi  %hi(0x40000000), %g3
 6002c54:	c4 00 60 08 	ld  [ %g1 + 8 ], %g2
 6002c58:	80 88 80 03 	btst  %g2, %g3
 6002c5c:	12 bf ff fe 	bne  6002c54 <ONFI_EraseBlock+0x60>
 6002c60:	05 00 00 3f 	sethi  %hi(0xfc00), %g2
 6002c64:	84 10 a3 00 	or  %g2, 0x300, %g2	! ff00 <RAM_LENGTH+0x8f00>
 6002c68:	84 0a 00 02 	and  %o0, %g2, %g2
 6002c6c:	84 10 a0 21 	or  %g2, 0x21, %g2
 6002c70:	c4 21 00 00 	st  %g2, [ %g4 ]
 6002c74:	07 10 00 00 	sethi  %hi(0x40000000), %g3
 6002c78:	c4 00 60 08 	ld  [ %g1 + 8 ], %g2
 6002c7c:	80 88 80 03 	btst  %g2, %g3
 6002c80:	12 bf ff fe 	bne  6002c78 <ONFI_EraseBlock+0x84>
 6002c84:	05 00 00 3f 	sethi  %hi(0xfc00), %g2
 6002c88:	91 32 20 10 	srl  %o0, 0x10, %o0
 6002c8c:	91 2a 20 08 	sll  %o0, 8, %o0
 6002c90:	84 10 a3 ff 	or  %g2, 0x3ff, %g2
 6002c94:	84 0a 00 02 	and  %o0, %g2, %g2
 6002c98:	84 10 a0 21 	or  %g2, 0x21, %g2
 6002c9c:	c4 21 00 00 	st  %g2, [ %g4 ]
 6002ca0:	07 10 00 00 	sethi  %hi(0x40000000), %g3
 6002ca4:	c4 00 60 08 	ld  [ %g1 + 8 ], %g2
 6002ca8:	80 88 80 03 	btst  %g2, %g3
 6002cac:	12 bf ff fe 	bne  6002ca4 <ONFI_EraseBlock+0xb0>
 6002cb0:	05 00 00 34 	sethi  %hi(0xd000), %g2
 6002cb4:	84 10 a0 20 	or  %g2, 0x20, %g2	! d020 <RAM_LENGTH+0x6020>
 6002cb8:	c4 21 00 00 	st  %g2, [ %g4 ]
 6002cbc:	07 10 00 00 	sethi  %hi(0x40000000), %g3
 6002cc0:	c4 00 60 08 	ld  [ %g1 + 8 ], %g2
 6002cc4:	80 88 80 03 	btst  %g2, %g3
 6002cc8:	12 bf ff fe 	bne  6002cc0 <ONFI_EraseBlock+0xcc>
 6002ccc:	05 03 40 00 	sethi  %hi(0xd000000), %g2
 6002cd0:	c4 00 a0 00 	ld  [ %g2 ], %g2
 6002cd4:	07 01 80 1c 	sethi  %hi(0x6007000), %g3
 6002cd8:	86 10 e3 80 	or  %g3, 0x380, %g3	! 6007380 <tWB>
 6002cdc:	c4 08 c0 02 	ldub  [ %g3 + %g2 ], %g2
 6002ce0:	85 28 a0 08 	sll  %g2, 8, %g2
 6002ce4:	84 10 a0 84 	or  %g2, 0x84, %g2
 6002ce8:	c4 21 00 00 	st  %g2, [ %g4 ]
 6002cec:	07 10 00 00 	sethi  %hi(0x40000000), %g3
 6002cf0:	c4 00 60 08 	ld  [ %g1 + 8 ], %g2
 6002cf4:	80 88 80 03 	btst  %g2, %g3
 6002cf8:	12 bf ff fe 	bne  6002cf0 <ONFI_EraseBlock+0xfc>
 6002cfc:	05 00 01 00 	sethi  %hi(0x40000), %g2
 6002d00:	84 10 a1 44 	or  %g2, 0x144, %g2	! 40144 <RAM_LENGTH+0x39144>
 6002d04:	c4 21 00 00 	st  %g2, [ %g4 ]
 6002d08:	07 10 00 00 	sethi  %hi(0x40000000), %g3
 6002d0c:	c4 00 60 08 	ld  [ %g1 + 8 ], %g2
 6002d10:	80 88 80 03 	btst  %g2, %g3
 6002d14:	12 bf ff fe 	bne  6002d0c <ONFI_EraseBlock+0x118>
 6002d18:	01 00 00 00 	nop 
 6002d1c:	81 c3 e0 08 	retl 
 6002d20:	01 00 00 00 	nop 

06002d24 <ONFI_EraseBlockMultiPlane>:
 6002d24:	03 03 40 00 	sethi  %hi(0xd000000), %g1
 6002d28:	c2 00 60 10 	ld  [ %g1 + 0x10 ], %g1	! d000010 <nfcReg>
 6002d2c:	07 00 00 3f 	sethi  %hi(0xfc00), %g3
 6002d30:	86 10 e3 ff 	or  %g3, 0x3ff, %g3	! ffff <RAM_LENGTH+0x8fff>
 6002d34:	c4 00 60 8c 	ld  [ %g1 + 0x8c ], %g2
 6002d38:	84 08 80 03 	and  %g2, %g3, %g2
 6002d3c:	80 a0 a0 06 	cmp  %g2, 6
 6002d40:	08 bf ff fd 	bleu  6002d34 <ONFI_EraseBlockMultiPlane+0x10>
 6002d44:	05 03 40 00 	sethi  %hi(0xd000000), %g2
 6002d48:	c8 00 a0 38 	ld  [ %g2 + 0x38 ], %g4	! d000038 <nfcCmd>
 6002d4c:	05 00 00 18 	sethi  %hi(0x6000), %g2
 6002d50:	84 10 a0 20 	or  %g2, 0x20, %g2	! 6020 <data_start+0x6020>
 6002d54:	07 10 00 00 	sethi  %hi(0x40000000), %g3
 6002d58:	c4 21 00 00 	st  %g2, [ %g4 ]
 6002d5c:	c4 00 60 08 	ld  [ %g1 + 8 ], %g2
 6002d60:	80 88 80 03 	btst  %g2, %g3
 6002d64:	12 bf ff fe 	bne  6002d5c <ONFI_EraseBlockMultiPlane+0x38>
 6002d68:	05 00 00 3f 	sethi  %hi(0xfc00), %g2
 6002d6c:	87 2a 20 08 	sll  %o0, 8, %g3
 6002d70:	84 10 a3 ff 	or  %g2, 0x3ff, %g2
 6002d74:	84 08 c0 02 	and  %g3, %g2, %g2
 6002d78:	84 10 a0 21 	or  %g2, 0x21, %g2
 6002d7c:	c4 21 00 00 	st  %g2, [ %g4 ]
 6002d80:	07 10 00 00 	sethi  %hi(0x40000000), %g3
 6002d84:	c4 00 60 08 	ld  [ %g1 + 8 ], %g2
 6002d88:	80 88 80 03 	btst  %g2, %g3
 6002d8c:	12 bf ff fe 	bne  6002d84 <ONFI_EraseBlockMultiPlane+0x60>
 6002d90:	05 00 00 3f 	sethi  %hi(0xfc00), %g2
 6002d94:	84 10 a3 00 	or  %g2, 0x300, %g2	! ff00 <RAM_LENGTH+0x8f00>
 6002d98:	84 0a 00 02 	and  %o0, %g2, %g2
 6002d9c:	84 10 a0 21 	or  %g2, 0x21, %g2
 6002da0:	c4 21 00 00 	st  %g2, [ %g4 ]
 6002da4:	07 10 00 00 	sethi  %hi(0x40000000), %g3
 6002da8:	c4 00 60 08 	ld  [ %g1 + 8 ], %g2
 6002dac:	80 88 80 03 	btst  %g2, %g3
 6002db0:	12 bf ff fe 	bne  6002da8 <ONFI_EraseBlockMultiPlane+0x84>
 6002db4:	05 00 00 3f 	sethi  %hi(0xfc00), %g2
 6002db8:	91 32 20 10 	srl  %o0, 0x10, %o0
 6002dbc:	91 2a 20 08 	sll  %o0, 8, %o0
 6002dc0:	84 10 a3 ff 	or  %g2, 0x3ff, %g2
 6002dc4:	84 0a 00 02 	and  %o0, %g2, %g2
 6002dc8:	84 10 a0 21 	or  %g2, 0x21, %g2
 6002dcc:	c4 21 00 00 	st  %g2, [ %g4 ]
 6002dd0:	07 10 00 00 	sethi  %hi(0x40000000), %g3
 6002dd4:	c4 00 60 08 	ld  [ %g1 + 8 ], %g2
 6002dd8:	80 88 80 03 	btst  %g2, %g3
 6002ddc:	12 bf ff fe 	bne  6002dd4 <ONFI_EraseBlockMultiPlane+0xb0>
 6002de0:	05 00 00 34 	sethi  %hi(0xd000), %g2
 6002de4:	84 10 a1 20 	or  %g2, 0x120, %g2	! d120 <RAM_LENGTH+0x6120>
 6002de8:	c4 21 00 00 	st  %g2, [ %g4 ]
 6002dec:	07 10 00 00 	sethi  %hi(0x40000000), %g3
 6002df0:	c4 00 60 08 	ld  [ %g1 + 8 ], %g2
 6002df4:	80 88 80 03 	btst  %g2, %g3
 6002df8:	12 bf ff fe 	bne  6002df0 <ONFI_EraseBlockMultiPlane+0xcc>
 6002dfc:	05 03 40 00 	sethi  %hi(0xd000000), %g2
 6002e00:	c4 00 a0 00 	ld  [ %g2 ], %g2
 6002e04:	07 01 80 1c 	sethi  %hi(0x6007000), %g3
 6002e08:	86 10 e3 80 	or  %g3, 0x380, %g3	! 6007380 <tWB>
 6002e0c:	c4 08 c0 02 	ldub  [ %g3 + %g2 ], %g2
 6002e10:	85 28 a0 08 	sll  %g2, 8, %g2
 6002e14:	84 10 a0 84 	or  %g2, 0x84, %g2
 6002e18:	c4 21 00 00 	st  %g2, [ %g4 ]
 6002e1c:	07 10 00 00 	sethi  %hi(0x40000000), %g3
 6002e20:	c4 00 60 08 	ld  [ %g1 + 8 ], %g2
 6002e24:	80 88 80 03 	btst  %g2, %g3
 6002e28:	12 bf ff fe 	bne  6002e20 <ONFI_EraseBlockMultiPlane+0xfc>
 6002e2c:	05 00 00 80 	sethi  %hi(0x20000), %g2
 6002e30:	84 10 a1 44 	or  %g2, 0x144, %g2	! 20144 <RAM_LENGTH+0x19144>
 6002e34:	c4 21 00 00 	st  %g2, [ %g4 ]
 6002e38:	07 10 00 00 	sethi  %hi(0x40000000), %g3
 6002e3c:	c4 00 60 08 	ld  [ %g1 + 8 ], %g2
 6002e40:	80 88 80 03 	btst  %g2, %g3
 6002e44:	12 bf ff fe 	bne  6002e3c <ONFI_EraseBlockMultiPlane+0x118>
 6002e48:	01 00 00 00 	nop 
 6002e4c:	81 c3 e0 08 	retl 
 6002e50:	01 00 00 00 	nop 

06002e54 <ONFI_EraseBlockMultiLun>:
 6002e54:	81 c3 e0 08 	retl 
 6002e58:	01 00 00 00 	nop 

06002e5c <ONFI_ProgramPageMultiLun_end>:
 6002e5c:	9d e3 bf a0 	save  %sp, -96, %sp
 6002e60:	03 03 40 00 	sethi  %hi(0xd000000), %g1
 6002e64:	c2 00 60 10 	ld  [ %g1 + 0x10 ], %g1	! d000010 <nfcReg>
 6002e68:	07 00 00 3f 	sethi  %hi(0xfc00), %g3
 6002e6c:	86 10 e3 ff 	or  %g3, 0x3ff, %g3	! ffff <RAM_LENGTH+0x8fff>
 6002e70:	c4 00 60 8c 	ld  [ %g1 + 0x8c ], %g2
 6002e74:	84 08 80 03 	and  %g2, %g3, %g2
 6002e78:	80 a0 a0 03 	cmp  %g2, 3
 6002e7c:	08 bf ff fd 	bleu  6002e70 <ONFI_ProgramPageMultiLun_end+0x14>
 6002e80:	05 03 40 00 	sethi  %hi(0xd000000), %g2
 6002e84:	c6 00 a0 38 	ld  [ %g2 + 0x38 ], %g3	! d000038 <nfcCmd>
 6002e88:	05 00 00 04 	sethi  %hi(0x1000), %g2
 6002e8c:	84 10 a0 20 	or  %g2, 0x20, %g2	! 1020 <data_start+0x1020>
 6002e90:	09 10 00 00 	sethi  %hi(0x40000000), %g4
 6002e94:	c4 20 c0 00 	st  %g2, [ %g3 ]
 6002e98:	c4 00 60 08 	ld  [ %g1 + 8 ], %g2
 6002e9c:	80 88 80 04 	btst  %g2, %g4
 6002ea0:	12 bf ff fe 	bne  6002e98 <ONFI_ProgramPageMultiLun_end+0x3c>
 6002ea4:	05 00 00 1e 	sethi  %hi(0x7800), %g2
 6002ea8:	84 10 a0 20 	or  %g2, 0x20, %g2	! 7820 <RAM_LENGTH+0x820>
 6002eac:	c4 20 c0 00 	st  %g2, [ %g3 ]
 6002eb0:	09 10 00 00 	sethi  %hi(0x40000000), %g4
 6002eb4:	c4 00 60 08 	ld  [ %g1 + 8 ], %g2
 6002eb8:	80 88 80 04 	btst  %g2, %g4
 6002ebc:	12 bf ff fe 	bne  6002eb4 <ONFI_ProgramPageMultiLun_end+0x58>
 6002ec0:	05 00 00 3f 	sethi  %hi(0xfc00), %g2
 6002ec4:	89 2e 20 08 	sll  %i0, 8, %g4
 6002ec8:	84 10 a3 ff 	or  %g2, 0x3ff, %g2
 6002ecc:	84 09 00 02 	and  %g4, %g2, %g2
 6002ed0:	84 10 a0 21 	or  %g2, 0x21, %g2
 6002ed4:	c4 20 c0 00 	st  %g2, [ %g3 ]
 6002ed8:	09 10 00 00 	sethi  %hi(0x40000000), %g4
 6002edc:	c4 00 60 08 	ld  [ %g1 + 8 ], %g2
 6002ee0:	80 88 80 04 	btst  %g2, %g4
 6002ee4:	12 bf ff fe 	bne  6002edc <ONFI_ProgramPageMultiLun_end+0x80>
 6002ee8:	05 00 00 3f 	sethi  %hi(0xfc00), %g2
 6002eec:	84 10 a3 00 	or  %g2, 0x300, %g2	! ff00 <RAM_LENGTH+0x8f00>
 6002ef0:	84 0e 00 02 	and  %i0, %g2, %g2
 6002ef4:	84 10 a0 21 	or  %g2, 0x21, %g2
 6002ef8:	c4 20 c0 00 	st  %g2, [ %g3 ]
 6002efc:	09 10 00 00 	sethi  %hi(0x40000000), %g4
 6002f00:	c4 00 60 08 	ld  [ %g1 + 8 ], %g2
 6002f04:	80 88 80 04 	btst  %g2, %g4
 6002f08:	12 bf ff fe 	bne  6002f00 <ONFI_ProgramPageMultiLun_end+0xa4>
 6002f0c:	05 00 00 3f 	sethi  %hi(0xfc00), %g2
 6002f10:	b1 36 20 10 	srl  %i0, 0x10, %i0
 6002f14:	b1 2e 20 08 	sll  %i0, 8, %i0
 6002f18:	84 10 a3 ff 	or  %g2, 0x3ff, %g2
 6002f1c:	84 0e 00 02 	and  %i0, %g2, %g2
 6002f20:	84 10 a0 21 	or  %g2, 0x21, %g2
 6002f24:	c4 20 c0 00 	st  %g2, [ %g3 ]
 6002f28:	09 10 00 00 	sethi  %hi(0x40000000), %g4
 6002f2c:	c4 00 60 08 	ld  [ %g1 + 8 ], %g2
 6002f30:	80 88 80 04 	btst  %g2, %g4
 6002f34:	12 bf ff fe 	bne  6002f2c <ONFI_ProgramPageMultiLun_end+0xd0>
 6002f38:	1b 03 40 00 	sethi  %hi(0xd000000), %o5
 6002f3c:	c4 03 60 00 	ld  [ %o5 ], %g2
 6002f40:	09 01 80 1c 	sethi  %hi(0x6007000), %g4
 6002f44:	88 11 23 70 	or  %g4, 0x370, %g4	! 6007370 <tWHR>
 6002f48:	c4 09 00 02 	ldub  [ %g4 + %g2 ], %g2
 6002f4c:	85 28 a0 08 	sll  %g2, 8, %g2
 6002f50:	84 10 a0 84 	or  %g2, 0x84, %g2
 6002f54:	c4 20 c0 00 	st  %g2, [ %g3 ]
 6002f58:	09 10 00 00 	sethi  %hi(0x40000000), %g4
 6002f5c:	c4 00 60 08 	ld  [ %g1 + 8 ], %g2
 6002f60:	80 88 80 04 	btst  %g2, %g4
 6002f64:	12 bf ff fe 	bne  6002f5c <ONFI_ProgramPageMultiLun_end+0x100>
 6002f68:	01 00 00 00 	nop 
 6002f6c:	c4 03 60 00 	ld  [ %o5 ], %g2
 6002f70:	19 01 80 1c 	sethi  %hi(0x6007000), %o4
 6002f74:	98 13 23 80 	or  %o4, 0x380, %o4	! 6007380 <tWB>
 6002f78:	c4 0b 00 02 	ldub  [ %o4 + %g2 ], %g2
 6002f7c:	85 28 a0 08 	sll  %g2, 8, %g2
 6002f80:	84 10 a0 84 	or  %g2, 0x84, %g2
 6002f84:	c4 20 c0 00 	st  %g2, [ %g3 ]
 6002f88:	09 10 00 00 	sethi  %hi(0x40000000), %g4
 6002f8c:	c4 00 60 08 	ld  [ %g1 + 8 ], %g2
 6002f90:	80 88 80 04 	btst  %g2, %g4
 6002f94:	12 bf ff fe 	bne  6002f8c <ONFI_ProgramPageMultiLun_end+0x130>
 6002f98:	05 00 01 00 	sethi  %hi(0x40000), %g2
 6002f9c:	84 10 a0 44 	or  %g2, 0x44, %g2	! 40044 <RAM_LENGTH+0x39044>
 6002fa0:	c4 20 c0 00 	st  %g2, [ %g3 ]
 6002fa4:	09 10 00 00 	sethi  %hi(0x40000000), %g4
 6002fa8:	c4 00 60 08 	ld  [ %g1 + 8 ], %g2
 6002fac:	80 88 80 04 	btst  %g2, %g4
 6002fb0:	12 bf ff fe 	bne  6002fa8 <ONFI_ProgramPageMultiLun_end+0x14c>
 6002fb4:	01 00 00 00 	nop 
 6002fb8:	c4 03 60 00 	ld  [ %o5 ], %g2
 6002fbc:	c4 0b 00 02 	ldub  [ %o4 + %g2 ], %g2
 6002fc0:	85 28 a0 08 	sll  %g2, 8, %g2
 6002fc4:	84 10 a0 84 	or  %g2, 0x84, %g2
 6002fc8:	c4 20 c0 00 	st  %g2, [ %g3 ]
 6002fcc:	07 10 00 00 	sethi  %hi(0x40000000), %g3
 6002fd0:	c4 00 60 08 	ld  [ %g1 + 8 ], %g2
 6002fd4:	80 88 80 03 	btst  %g2, %g3
 6002fd8:	12 bf ff fe 	bne  6002fd0 <ONFI_ProgramPageMultiLun_end+0x174>
 6002fdc:	01 00 00 00 	nop 
 6002fe0:	81 c7 e0 08 	ret 
 6002fe4:	81 e8 00 00 	restore 

06002fe8 <ONFI_CopybackRead>:
 6002fe8:	9d e3 bf a0 	save  %sp, -96, %sp
 6002fec:	03 03 40 00 	sethi  %hi(0xd000000), %g1
 6002ff0:	c2 00 60 10 	ld  [ %g1 + 0x10 ], %g1	! d000010 <nfcReg>
 6002ff4:	07 00 00 3f 	sethi  %hi(0xfc00), %g3
 6002ff8:	86 10 e3 ff 	or  %g3, 0x3ff, %g3	! ffff <RAM_LENGTH+0x8fff>
 6002ffc:	c4 00 60 8c 	ld  [ %g1 + 0x8c ], %g2
 6003000:	84 08 80 03 	and  %g2, %g3, %g2
 6003004:	80 a0 a0 07 	cmp  %g2, 7
 6003008:	08 bf ff fd 	bleu  6002ffc <ONFI_CopybackRead+0x14>
 600300c:	05 03 40 00 	sethi  %hi(0xd000000), %g2
 6003010:	c6 00 a0 38 	ld  [ %g2 + 0x38 ], %g3	! d000038 <nfcCmd>
 6003014:	84 10 20 20 	mov  0x20, %g2
 6003018:	09 10 00 00 	sethi  %hi(0x40000000), %g4
 600301c:	c4 20 c0 00 	st  %g2, [ %g3 ]
 6003020:	c4 00 60 08 	ld  [ %g1 + 8 ], %g2
 6003024:	80 88 80 04 	btst  %g2, %g4
 6003028:	12 bf ff fe 	bne  6003020 <ONFI_CopybackRead+0x38>
 600302c:	05 00 00 3f 	sethi  %hi(0xfc00), %g2
 6003030:	b3 2e 60 10 	sll  %i1, 0x10, %i1
 6003034:	89 36 60 08 	srl  %i1, 8, %g4
 6003038:	84 10 a3 ff 	or  %g2, 0x3ff, %g2
 600303c:	84 09 00 02 	and  %g4, %g2, %g2
 6003040:	84 10 a0 21 	or  %g2, 0x21, %g2
 6003044:	c4 20 c0 00 	st  %g2, [ %g3 ]
 6003048:	09 10 00 00 	sethi  %hi(0x40000000), %g4
 600304c:	c4 00 60 08 	ld  [ %g1 + 8 ], %g2
 6003050:	80 88 80 04 	btst  %g2, %g4
 6003054:	12 bf ff fe 	bne  600304c <ONFI_CopybackRead+0x64>
 6003058:	01 00 00 00 	nop 
 600305c:	b3 36 60 18 	srl  %i1, 0x18, %i1
 6003060:	b3 2e 60 08 	sll  %i1, 8, %i1
 6003064:	b2 16 60 21 	or  %i1, 0x21, %i1
 6003068:	f2 20 c0 00 	st  %i1, [ %g3 ]
 600306c:	09 10 00 00 	sethi  %hi(0x40000000), %g4
 6003070:	c4 00 60 08 	ld  [ %g1 + 8 ], %g2
 6003074:	80 88 80 04 	btst  %g2, %g4
 6003078:	12 bf ff fe 	bne  6003070 <ONFI_CopybackRead+0x88>
 600307c:	05 00 00 3f 	sethi  %hi(0xfc00), %g2
 6003080:	89 2e 20 08 	sll  %i0, 8, %g4
 6003084:	84 10 a3 ff 	or  %g2, 0x3ff, %g2
 6003088:	84 09 00 02 	and  %g4, %g2, %g2
 600308c:	84 10 a0 21 	or  %g2, 0x21, %g2
 6003090:	c4 20 c0 00 	st  %g2, [ %g3 ]
 6003094:	09 10 00 00 	sethi  %hi(0x40000000), %g4
 6003098:	c4 00 60 08 	ld  [ %g1 + 8 ], %g2
 600309c:	80 88 80 04 	btst  %g2, %g4
 60030a0:	12 bf ff fe 	bne  6003098 <ONFI_CopybackRead+0xb0>
 60030a4:	05 00 00 3f 	sethi  %hi(0xfc00), %g2
 60030a8:	84 10 a3 00 	or  %g2, 0x300, %g2	! ff00 <RAM_LENGTH+0x8f00>
 60030ac:	84 0e 00 02 	and  %i0, %g2, %g2
 60030b0:	84 10 a0 21 	or  %g2, 0x21, %g2
 60030b4:	c4 20 c0 00 	st  %g2, [ %g3 ]
 60030b8:	09 10 00 00 	sethi  %hi(0x40000000), %g4
 60030bc:	c4 00 60 08 	ld  [ %g1 + 8 ], %g2
 60030c0:	80 88 80 04 	btst  %g2, %g4
 60030c4:	12 bf ff fe 	bne  60030bc <ONFI_CopybackRead+0xd4>
 60030c8:	05 00 00 3f 	sethi  %hi(0xfc00), %g2
 60030cc:	b1 36 20 10 	srl  %i0, 0x10, %i0
 60030d0:	b1 2e 20 08 	sll  %i0, 8, %i0
 60030d4:	84 10 a3 ff 	or  %g2, 0x3ff, %g2
 60030d8:	84 0e 00 02 	and  %i0, %g2, %g2
 60030dc:	84 10 a0 21 	or  %g2, 0x21, %g2
 60030e0:	c4 20 c0 00 	st  %g2, [ %g3 ]
 60030e4:	09 10 00 00 	sethi  %hi(0x40000000), %g4
 60030e8:	c4 00 60 08 	ld  [ %g1 + 8 ], %g2
 60030ec:	80 88 80 04 	btst  %g2, %g4
 60030f0:	12 bf ff fe 	bne  60030e8 <ONFI_CopybackRead+0x100>
 60030f4:	05 00 00 0d 	sethi  %hi(0x3400), %g2
 60030f8:	84 10 a1 20 	or  %g2, 0x120, %g2	! 3520 <data_start+0x3520>
 60030fc:	c4 20 c0 00 	st  %g2, [ %g3 ]
 6003100:	09 10 00 00 	sethi  %hi(0x40000000), %g4
 6003104:	c4 00 60 08 	ld  [ %g1 + 8 ], %g2
 6003108:	80 88 80 04 	btst  %g2, %g4
 600310c:	12 bf ff fe 	bne  6003104 <ONFI_CopybackRead+0x11c>
 6003110:	1b 03 40 00 	sethi  %hi(0xd000000), %o5
 6003114:	c4 03 60 00 	ld  [ %o5 ], %g2
 6003118:	09 01 80 1c 	sethi  %hi(0x6007000), %g4
 600311c:	88 11 23 80 	or  %g4, 0x380, %g4	! 6007380 <tWB>
 6003120:	c4 09 00 02 	ldub  [ %g4 + %g2 ], %g2
 6003124:	85 28 a0 08 	sll  %g2, 8, %g2
 6003128:	84 10 a0 84 	or  %g2, 0x84, %g2
 600312c:	c4 20 c0 00 	st  %g2, [ %g3 ]
 6003130:	09 10 00 00 	sethi  %hi(0x40000000), %g4
 6003134:	c4 00 60 08 	ld  [ %g1 + 8 ], %g2
 6003138:	80 88 80 04 	btst  %g2, %g4
 600313c:	12 bf ff fe 	bne  6003134 <ONFI_CopybackRead+0x14c>
 6003140:	01 00 00 00 	nop 
 6003144:	c4 00 60 08 	ld  [ %g1 + 8 ], %g2
 6003148:	80 88 a0 02 	btst  2, %g2
 600314c:	22 80 00 39 	be,a   6003230 <ONFI_CopybackRead+0x248>
 6003150:	b4 06 bf ff 	add  %i2, -1, %i2
 6003154:	09 00 00 3f 	sethi  %hi(0xfc00), %g4
 6003158:	88 11 23 ff 	or  %g4, 0x3ff, %g4	! ffff <RAM_LENGTH+0x8fff>
 600315c:	c4 00 60 8c 	ld  [ %g1 + 0x8c ], %g2
 6003160:	84 08 80 04 	and  %g2, %g4, %g2
 6003164:	80 a0 a0 05 	cmp  %g2, 5
 6003168:	08 bf ff fd 	bleu  600315c <ONFI_CopybackRead+0x174>
 600316c:	05 00 00 66 	sethi  %hi(0x19800), %g2
 6003170:	84 10 a2 06 	or  %g2, 0x206, %g2	! 19a06 <RAM_LENGTH+0x12a06>
 6003174:	c4 20 c0 00 	st  %g2, [ %g3 ]
 6003178:	09 10 00 00 	sethi  %hi(0x40000000), %g4
 600317c:	c4 00 60 08 	ld  [ %g1 + 8 ], %g2
 6003180:	80 88 80 04 	btst  %g2, %g4
 6003184:	12 bf ff fe 	bne  600317c <ONFI_CopybackRead+0x194>
 6003188:	84 10 22 84 	mov  0x284, %g2
 600318c:	c4 20 c0 00 	st  %g2, [ %g3 ]
 6003190:	09 10 00 00 	sethi  %hi(0x40000000), %g4
 6003194:	c4 00 60 08 	ld  [ %g1 + 8 ], %g2
 6003198:	80 88 80 04 	btst  %g2, %g4
 600319c:	12 bf ff fe 	bne  6003194 <ONFI_CopybackRead+0x1ac>
 60031a0:	01 00 00 00 	nop 
 60031a4:	b5 2e a0 08 	sll  %i2, 8, %i2
 60031a8:	b4 16 a0 82 	or  %i2, 0x82, %i2
 60031ac:	f4 20 c0 00 	st  %i2, [ %g3 ]
 60031b0:	09 10 00 00 	sethi  %hi(0x40000000), %g4
 60031b4:	c4 00 60 08 	ld  [ %g1 + 8 ], %g2
 60031b8:	80 88 80 04 	btst  %g2, %g4
 60031bc:	12 bf ff fe 	bne  60031b4 <ONFI_CopybackRead+0x1cc>
 60031c0:	84 10 22 84 	mov  0x284, %g2
 60031c4:	c4 20 c0 00 	st  %g2, [ %g3 ]
 60031c8:	09 10 00 00 	sethi  %hi(0x40000000), %g4
 60031cc:	c4 00 60 08 	ld  [ %g1 + 8 ], %g2
 60031d0:	80 88 80 04 	btst  %g2, %g4
 60031d4:	12 bf ff fe 	bne  60031cc <ONFI_CopybackRead+0x1e4>
 60031d8:	05 00 00 62 	sethi  %hi(0x18800), %g2
 60031dc:	84 10 a2 06 	or  %g2, 0x206, %g2	! 18a06 <RAM_LENGTH+0x11a06>
 60031e0:	c4 20 c0 00 	st  %g2, [ %g3 ]
 60031e4:	09 10 00 00 	sethi  %hi(0x40000000), %g4
 60031e8:	c4 00 60 08 	ld  [ %g1 + 8 ], %g2
 60031ec:	80 88 80 04 	btst  %g2, %g4
 60031f0:	12 bf ff fe 	bne  60031e8 <ONFI_CopybackRead+0x200>
 60031f4:	01 00 00 00 	nop 
 60031f8:	c4 03 60 00 	ld  [ %o5 ], %g2
 60031fc:	09 01 80 1c 	sethi  %hi(0x6007000), %g4
 6003200:	88 11 23 78 	or  %g4, 0x378, %g4	! 6007378 <tRHW>
 6003204:	c4 09 00 02 	ldub  [ %g4 + %g2 ], %g2
 6003208:	85 28 a0 08 	sll  %g2, 8, %g2
 600320c:	84 10 a0 84 	or  %g2, 0x84, %g2
 6003210:	c4 20 c0 00 	st  %g2, [ %g3 ]
 6003214:	07 10 00 00 	sethi  %hi(0x40000000), %g3
 6003218:	c4 00 60 08 	ld  [ %g1 + 8 ], %g2
 600321c:	80 88 80 03 	btst  %g2, %g3
 6003220:	12 bf ff fe 	bne  6003218 <ONFI_CopybackRead+0x230>
 6003224:	01 00 00 00 	nop 
 6003228:	81 c7 e0 08 	ret 
 600322c:	81 e8 00 00 	restore 
 6003230:	b5 2e a0 08 	sll  %i2, 8, %i2
 6003234:	b4 16 a0 82 	or  %i2, 0x82, %i2
 6003238:	f4 20 c0 00 	st  %i2, [ %g3 ]
 600323c:	07 10 00 00 	sethi  %hi(0x40000000), %g3
 6003240:	c4 00 60 08 	ld  [ %g1 + 8 ], %g2
 6003244:	80 88 80 03 	btst  %g2, %g3
 6003248:	12 bf ff fe 	bne  6003240 <ONFI_CopybackRead+0x258>
 600324c:	01 00 00 00 	nop 
 6003250:	81 c7 e0 08 	ret 
 6003254:	81 e8 00 00 	restore 

06003258 <ONFI_CopybackProgramInterleaved>:
 6003258:	81 c3 e0 08 	retl 
 600325c:	01 00 00 00 	nop 

06003260 <ONFI_receive8>:
 6003260:	9d e3 bf a0 	save  %sp, -96, %sp
 6003264:	05 03 40 00 	sethi  %hi(0xd000000), %g2
 6003268:	c2 00 a0 10 	ld  [ %g2 + 0x10 ], %g1	! d000010 <nfcReg>
 600326c:	c6 00 60 08 	ld  [ %g1 + 8 ], %g3
 6003270:	09 00 00 3f 	sethi  %hi(0xfc00), %g4
 6003274:	80 88 e0 02 	btst  2, %g3
 6003278:	02 80 00 3f 	be  6003374 <ONFI_receive8+0x114>
 600327c:	88 11 23 ff 	or  %g4, 0x3ff, %g4
 6003280:	09 00 00 3f 	sethi  %hi(0xfc00), %g4
 6003284:	88 11 23 ff 	or  %g4, 0x3ff, %g4	! ffff <RAM_LENGTH+0x8fff>
 6003288:	c6 00 60 8c 	ld  [ %g1 + 0x8c ], %g3
 600328c:	86 08 c0 04 	and  %g3, %g4, %g3
 6003290:	80 a0 e0 04 	cmp  %g3, 4
 6003294:	08 bf ff fd 	bleu  6003288 <ONFI_receive8+0x28>
 6003298:	07 03 40 00 	sethi  %hi(0xd000000), %g3
 600329c:	da 00 e0 38 	ld  [ %g3 + 0x38 ], %o5	! d000038 <nfcCmd>
 60032a0:	07 00 00 66 	sethi  %hi(0x19800), %g3
 60032a4:	86 10 e2 06 	or  %g3, 0x206, %g3	! 19a06 <RAM_LENGTH+0x12a06>
 60032a8:	09 10 00 00 	sethi  %hi(0x40000000), %g4
 60032ac:	c6 23 40 00 	st  %g3, [ %o5 ]
 60032b0:	c6 00 60 08 	ld  [ %g1 + 8 ], %g3
 60032b4:	80 88 c0 04 	btst  %g3, %g4
 60032b8:	12 bf ff fe 	bne  60032b0 <ONFI_receive8+0x50>
 60032bc:	86 10 22 84 	mov  0x284, %g3
 60032c0:	c6 23 40 00 	st  %g3, [ %o5 ]
 60032c4:	09 10 00 00 	sethi  %hi(0x40000000), %g4
 60032c8:	c6 00 60 08 	ld  [ %g1 + 8 ], %g3
 60032cc:	80 88 c0 04 	btst  %g3, %g4
 60032d0:	12 bf ff fe 	bne  60032c8 <ONFI_receive8+0x68>
 60032d4:	87 2e 60 08 	sll  %i1, 8, %g3
 60032d8:	86 10 e0 82 	or  %g3, 0x82, %g3
 60032dc:	c6 23 40 00 	st  %g3, [ %o5 ]
 60032e0:	09 10 00 00 	sethi  %hi(0x40000000), %g4
 60032e4:	c6 00 60 08 	ld  [ %g1 + 8 ], %g3
 60032e8:	80 88 c0 04 	btst  %g3, %g4
 60032ec:	12 bf ff fe 	bne  60032e4 <ONFI_receive8+0x84>
 60032f0:	86 10 22 84 	mov  0x284, %g3
 60032f4:	c6 23 40 00 	st  %g3, [ %o5 ]
 60032f8:	09 10 00 00 	sethi  %hi(0x40000000), %g4
 60032fc:	c6 00 60 08 	ld  [ %g1 + 8 ], %g3
 6003300:	80 88 c0 04 	btst  %g3, %g4
 6003304:	12 bf ff fe 	bne  60032fc <ONFI_receive8+0x9c>
 6003308:	07 00 00 62 	sethi  %hi(0x18800), %g3
 600330c:	86 10 e2 06 	or  %g3, 0x206, %g3	! 18a06 <RAM_LENGTH+0x11a06>
 6003310:	c6 23 40 00 	st  %g3, [ %o5 ]
 6003314:	09 10 00 00 	sethi  %hi(0x40000000), %g4
 6003318:	c6 00 60 08 	ld  [ %g1 + 8 ], %g3
 600331c:	80 88 c0 04 	btst  %g3, %g4
 6003320:	12 bf ff fe 	bne  6003318 <ONFI_receive8+0xb8>
 6003324:	1b 03 40 00 	sethi  %hi(0xd000000), %o5
 6003328:	88 06 7f ff 	add  %i1, -1, %g4
 600332c:	80 a6 60 00 	cmp  %i1, 0
 6003330:	84 10 a0 10 	or  %g2, 0x10, %g2
 6003334:	02 80 00 20 	be  60033b4 <ONFI_receive8+0x154>
 6003338:	9a 13 60 04 	or  %o5, 4, %o5
 600333c:	c6 00 60 90 	ld  [ %g1 + 0x90 ], %g3
 6003340:	87 30 e0 10 	srl  %g3, 0x10, %g3
 6003344:	80 a0 e0 00 	cmp  %g3, 0
 6003348:	02 bf ff fd 	be  600333c <ONFI_receive8+0xdc>
 600334c:	80 a1 20 00 	cmp  %g4, 0
 6003350:	c2 03 40 00 	ld  [ %o5 ], %g1
 6003354:	88 01 3f ff 	add  %g4, -1, %g4
 6003358:	c0 20 40 00 	clr  [ %g1 ]
 600335c:	c2 00 40 00 	ld  [ %g1 ], %g1
 6003360:	02 80 00 15 	be  60033b4 <ONFI_receive8+0x154>
 6003364:	c2 2e 00 00 	stb  %g1, [ %i0 ]
 6003368:	b0 06 20 01 	inc  %i0
 600336c:	10 bf ff f4 	b  600333c <ONFI_receive8+0xdc>
 6003370:	c2 00 80 00 	ld  [ %g2 ], %g1
 6003374:	c6 00 60 8c 	ld  [ %g1 + 0x8c ], %g3
 6003378:	80 88 c0 04 	btst  %g3, %g4
 600337c:	02 bf ff fe 	be  6003374 <ONFI_receive8+0x114>
 6003380:	07 03 40 00 	sethi  %hi(0xd000000), %g3
 6003384:	c6 00 e0 38 	ld  [ %g3 + 0x38 ], %g3	! d000038 <nfcCmd>
 6003388:	88 06 7f ff 	add  %i1, -1, %g4
 600338c:	9b 29 20 08 	sll  %g4, 8, %o5
 6003390:	9a 13 60 82 	or  %o5, 0x82, %o5
 6003394:	da 20 c0 00 	st  %o5, [ %g3 ]
 6003398:	1b 10 00 00 	sethi  %hi(0x40000000), %o5
 600339c:	c6 00 60 08 	ld  [ %g1 + 8 ], %g3
 60033a0:	80 88 c0 0d 	btst  %g3, %o5
 60033a4:	12 bf ff fe 	bne  600339c <ONFI_receive8+0x13c>
 60033a8:	01 00 00 00 	nop 
 60033ac:	10 bf ff e0 	b  600332c <ONFI_receive8+0xcc>
 60033b0:	1b 03 40 00 	sethi  %hi(0xd000000), %o5
 60033b4:	81 c7 e0 08 	ret 
 60033b8:	81 e8 00 00 	restore 

060033bc <ONFI_receive16>:
 60033bc:	03 03 40 00 	sethi  %hi(0xd000000), %g1
 60033c0:	c2 00 60 10 	ld  [ %g1 + 0x10 ], %g1	! d000010 <nfcReg>
 60033c4:	c4 00 60 08 	ld  [ %g1 + 8 ], %g2
 60033c8:	07 00 00 3f 	sethi  %hi(0xfc00), %g3
 60033cc:	80 88 a0 02 	btst  2, %g2
 60033d0:	02 80 00 3d 	be  60034c4 <ONFI_receive16+0x108>
 60033d4:	86 10 e3 ff 	or  %g3, 0x3ff, %g3
 60033d8:	07 00 00 3f 	sethi  %hi(0xfc00), %g3
 60033dc:	86 10 e3 ff 	or  %g3, 0x3ff, %g3	! ffff <RAM_LENGTH+0x8fff>
 60033e0:	c4 00 60 8c 	ld  [ %g1 + 0x8c ], %g2
 60033e4:	84 08 80 03 	and  %g2, %g3, %g2
 60033e8:	80 a0 a0 04 	cmp  %g2, 4
 60033ec:	08 bf ff fd 	bleu  60033e0 <ONFI_receive16+0x24>
 60033f0:	05 03 40 00 	sethi  %hi(0xd000000), %g2
 60033f4:	c8 00 a0 38 	ld  [ %g2 + 0x38 ], %g4	! d000038 <nfcCmd>
 60033f8:	05 00 00 66 	sethi  %hi(0x19800), %g2
 60033fc:	84 10 a2 06 	or  %g2, 0x206, %g2	! 19a06 <RAM_LENGTH+0x12a06>
 6003400:	07 10 00 00 	sethi  %hi(0x40000000), %g3
 6003404:	c4 21 00 00 	st  %g2, [ %g4 ]
 6003408:	c4 00 60 08 	ld  [ %g1 + 8 ], %g2
 600340c:	80 88 80 03 	btst  %g2, %g3
 6003410:	12 bf ff fe 	bne  6003408 <ONFI_receive16+0x4c>
 6003414:	84 10 22 84 	mov  0x284, %g2
 6003418:	c4 21 00 00 	st  %g2, [ %g4 ]
 600341c:	07 10 00 00 	sethi  %hi(0x40000000), %g3
 6003420:	c4 00 60 08 	ld  [ %g1 + 8 ], %g2
 6003424:	80 88 80 03 	btst  %g2, %g3
 6003428:	12 bf ff fe 	bne  6003420 <ONFI_receive16+0x64>
 600342c:	85 2a 60 08 	sll  %o1, 8, %g2
 6003430:	84 10 a0 82 	or  %g2, 0x82, %g2
 6003434:	c4 21 00 00 	st  %g2, [ %g4 ]
 6003438:	07 10 00 00 	sethi  %hi(0x40000000), %g3
 600343c:	c4 00 60 08 	ld  [ %g1 + 8 ], %g2
 6003440:	80 88 80 03 	btst  %g2, %g3
 6003444:	12 bf ff fe 	bne  600343c <ONFI_receive16+0x80>
 6003448:	84 10 22 84 	mov  0x284, %g2
 600344c:	c4 21 00 00 	st  %g2, [ %g4 ]
 6003450:	07 10 00 00 	sethi  %hi(0x40000000), %g3
 6003454:	c4 00 60 08 	ld  [ %g1 + 8 ], %g2
 6003458:	80 88 80 03 	btst  %g2, %g3
 600345c:	12 bf ff fe 	bne  6003454 <ONFI_receive16+0x98>
 6003460:	05 00 00 62 	sethi  %hi(0x18800), %g2
 6003464:	84 10 a2 06 	or  %g2, 0x206, %g2	! 18a06 <RAM_LENGTH+0x11a06>
 6003468:	c4 21 00 00 	st  %g2, [ %g4 ]
 600346c:	07 10 00 00 	sethi  %hi(0x40000000), %g3
 6003470:	c4 00 60 08 	ld  [ %g1 + 8 ], %g2
 6003474:	80 88 80 03 	btst  %g2, %g3
 6003478:	12 bf ff fe 	bne  6003470 <ONFI_receive16+0xb4>
 600347c:	80 a2 60 00 	cmp  %o1, 0
 6003480:	86 02 7f ff 	add  %o1, -1, %g3
 6003484:	02 80 00 1f 	be  6003500 <ONFI_receive16+0x144>
 6003488:	05 03 40 00 	sethi  %hi(0xd000000), %g2
 600348c:	c8 00 a0 04 	ld  [ %g2 + 4 ], %g4	! d000004 <NFC_FMICFFRD>
 6003490:	c4 00 60 90 	ld  [ %g1 + 0x90 ], %g2
 6003494:	85 30 a0 10 	srl  %g2, 0x10, %g2
 6003498:	80 a0 a0 00 	cmp  %g2, 0
 600349c:	02 bf ff fd 	be  6003490 <ONFI_receive16+0xd4>
 60034a0:	01 00 00 00 	nop 
 60034a4:	c0 21 00 00 	clr  [ %g4 ]
 60034a8:	80 a0 e0 00 	cmp  %g3, 0
 60034ac:	86 00 ff ff 	add  %g3, -1, %g3
 60034b0:	c4 01 00 00 	ld  [ %g4 ], %g2
 60034b4:	02 80 00 13 	be  6003500 <ONFI_receive16+0x144>
 60034b8:	c4 32 00 00 	sth  %g2, [ %o0 ]
 60034bc:	10 bf ff f5 	b  6003490 <ONFI_receive16+0xd4>
 60034c0:	90 02 20 02 	add  %o0, 2, %o0
 60034c4:	c4 00 60 8c 	ld  [ %g1 + 0x8c ], %g2
 60034c8:	80 88 80 03 	btst  %g2, %g3
 60034cc:	02 bf ff fe 	be  60034c4 <ONFI_receive16+0x108>
 60034d0:	05 03 40 00 	sethi  %hi(0xd000000), %g2
 60034d4:	c4 00 a0 38 	ld  [ %g2 + 0x38 ], %g2	! d000038 <nfcCmd>
 60034d8:	86 02 7f ff 	add  %o1, -1, %g3
 60034dc:	89 28 e0 08 	sll  %g3, 8, %g4
 60034e0:	88 11 20 82 	or  %g4, 0x82, %g4
 60034e4:	c8 20 80 00 	st  %g4, [ %g2 ]
 60034e8:	09 10 00 00 	sethi  %hi(0x40000000), %g4
 60034ec:	c4 00 60 08 	ld  [ %g1 + 8 ], %g2
 60034f0:	80 88 80 04 	btst  %g2, %g4
 60034f4:	12 bf ff fe 	bne  60034ec <ONFI_receive16+0x130>
 60034f8:	80 a2 60 00 	cmp  %o1, 0
 60034fc:	30 bf ff e2 	b,a   6003484 <ONFI_receive16+0xc8>
 6003500:	81 c3 e0 08 	retl 
 6003504:	01 00 00 00 	nop 

06003508 <ONFI_dma_read>:
 6003508:	9d e3 bf a0 	save  %sp, -96, %sp
 600350c:	03 03 40 00 	sethi  %hi(0xd000000), %g1
 6003510:	c2 00 60 10 	ld  [ %g1 + 0x10 ], %g1	! d000010 <nfcReg>
 6003514:	c4 00 60 08 	ld  [ %g1 + 8 ], %g2
 6003518:	84 08 a0 06 	and  %g2, 6, %g2
 600351c:	80 a0 a0 04 	cmp  %g2, 4
 6003520:	02 80 00 7d 	be  6003714 <ONFI_dma_read+0x20c>
 6003524:	80 a0 a0 06 	cmp  %g2, 6
 6003528:	b0 06 20 03 	add  %i0, 3, %i0
 600352c:	02 80 00 07 	be  6003548 <ONFI_dma_read+0x40>
 6003530:	9b 36 20 02 	srl  %i0, 2, %o5
 6003534:	80 a0 a0 02 	cmp  %g2, 2
 6003538:	02 80 00 04 	be  6003548 <ONFI_dma_read+0x40>
 600353c:	9b 2b 60 01 	sll  %o5, 1, %o5
 6003540:	b0 0e 3f fc 	and  %i0, -4, %i0
 6003544:	9a 06 3f ff 	add  %i0, -1, %o5
 6003548:	b4 0e a0 ff 	and  %i2, 0xff, %i2
 600354c:	80 a6 a0 01 	cmp  %i2, 1
 6003550:	02 80 00 68 	be  60036f0 <ONFI_dma_read+0x1e8>
 6003554:	05 03 40 00 	sethi  %hi(0xd000000), %g2
 6003558:	c6 00 a0 38 	ld  [ %g2 + 0x38 ], %g3	! d000038 <nfcCmd>
 600355c:	c4 00 60 08 	ld  [ %g1 + 8 ], %g2
 6003560:	09 00 00 3f 	sethi  %hi(0xfc00), %g4
 6003564:	80 88 a0 02 	btst  2, %g2
 6003568:	02 80 00 46 	be  6003680 <ONFI_dma_read+0x178>
 600356c:	88 11 23 ff 	or  %g4, 0x3ff, %g4
 6003570:	09 00 00 3f 	sethi  %hi(0xfc00), %g4
 6003574:	88 11 23 ff 	or  %g4, 0x3ff, %g4	! ffff <RAM_LENGTH+0x8fff>
 6003578:	c4 00 60 8c 	ld  [ %g1 + 0x8c ], %g2
 600357c:	84 08 80 04 	and  %g2, %g4, %g2
 6003580:	80 a0 a0 06 	cmp  %g2, 6
 6003584:	08 bf ff fd 	bleu  6003578 <ONFI_dma_read+0x70>
 6003588:	05 00 00 66 	sethi  %hi(0x19800), %g2
 600358c:	84 10 a2 06 	or  %g2, 0x206, %g2	! 19a06 <RAM_LENGTH+0x12a06>
 6003590:	c4 20 c0 00 	st  %g2, [ %g3 ]
 6003594:	09 10 00 00 	sethi  %hi(0x40000000), %g4
 6003598:	c4 00 60 08 	ld  [ %g1 + 8 ], %g2
 600359c:	80 88 80 04 	btst  %g2, %g4
 60035a0:	12 bf ff fe 	bne  6003598 <ONFI_dma_read+0x90>
 60035a4:	84 10 22 84 	mov  0x284, %g2
 60035a8:	c4 20 c0 00 	st  %g2, [ %g3 ]
 60035ac:	09 10 00 00 	sethi  %hi(0x40000000), %g4
 60035b0:	c4 00 60 08 	ld  [ %g1 + 8 ], %g2
 60035b4:	80 88 80 04 	btst  %g2, %g4
 60035b8:	12 bf ff fe 	bne  60035b0 <ONFI_dma_read+0xa8>
 60035bc:	19 03 40 00 	sethi  %hi(0xd000000), %o4
 60035c0:	c4 03 20 00 	ld  [ %o4 ], %g2
 60035c4:	09 01 80 1c 	sethi  %hi(0x6007000), %g4
 60035c8:	88 11 23 70 	or  %g4, 0x370, %g4	! 6007370 <tWHR>
 60035cc:	c4 09 00 02 	ldub  [ %g4 + %g2 ], %g2
 60035d0:	85 28 a0 08 	sll  %g2, 8, %g2
 60035d4:	84 10 a0 84 	or  %g2, 0x84, %g2
 60035d8:	c4 20 c0 00 	st  %g2, [ %g3 ]
 60035dc:	09 10 00 00 	sethi  %hi(0x40000000), %g4
 60035e0:	c4 00 60 08 	ld  [ %g1 + 8 ], %g2
 60035e4:	80 88 80 04 	btst  %g2, %g4
 60035e8:	12 bf ff fe 	bne  60035e0 <ONFI_dma_read+0xd8>
 60035ec:	01 00 00 00 	nop 
 60035f0:	b2 16 60 92 	or  %i1, 0x92, %i1
 60035f4:	9b 2b 60 08 	sll  %o5, 8, %o5
 60035f8:	9a 16 40 0d 	or  %i1, %o5, %o5
 60035fc:	da 20 c0 00 	st  %o5, [ %g3 ]
 6003600:	09 10 00 00 	sethi  %hi(0x40000000), %g4
 6003604:	c4 00 60 08 	ld  [ %g1 + 8 ], %g2
 6003608:	80 88 80 04 	btst  %g2, %g4
 600360c:	12 bf ff fe 	bne  6003604 <ONFI_dma_read+0xfc>
 6003610:	84 10 22 94 	mov  0x294, %g2
 6003614:	c4 20 c0 00 	st  %g2, [ %g3 ]
 6003618:	09 10 00 00 	sethi  %hi(0x40000000), %g4
 600361c:	c4 00 60 08 	ld  [ %g1 + 8 ], %g2
 6003620:	80 88 80 04 	btst  %g2, %g4
 6003624:	12 bf ff fe 	bne  600361c <ONFI_dma_read+0x114>
 6003628:	05 00 00 62 	sethi  %hi(0x18800), %g2
 600362c:	84 10 a2 16 	or  %g2, 0x216, %g2	! 18a16 <RAM_LENGTH+0x11a16>
 6003630:	c4 20 c0 00 	st  %g2, [ %g3 ]
 6003634:	09 10 00 00 	sethi  %hi(0x40000000), %g4
 6003638:	c4 00 60 08 	ld  [ %g1 + 8 ], %g2
 600363c:	80 88 80 04 	btst  %g2, %g4
 6003640:	12 bf ff fe 	bne  6003638 <ONFI_dma_read+0x130>
 6003644:	01 00 00 00 	nop 
 6003648:	c4 03 20 00 	ld  [ %o4 ], %g2
 600364c:	09 01 80 1c 	sethi  %hi(0x6007000), %g4
 6003650:	88 11 23 78 	or  %g4, 0x378, %g4	! 6007378 <tRHW>
 6003654:	c4 09 00 02 	ldub  [ %g4 + %g2 ], %g2
 6003658:	85 28 a0 08 	sll  %g2, 8, %g2
 600365c:	84 10 a0 94 	or  %g2, 0x94, %g2
 6003660:	c4 20 c0 00 	st  %g2, [ %g3 ]
 6003664:	07 10 00 00 	sethi  %hi(0x40000000), %g3
 6003668:	c4 00 60 08 	ld  [ %g1 + 8 ], %g2
 600366c:	80 88 80 03 	btst  %g2, %g3
 6003670:	12 bf ff fe 	bne  6003668 <ONFI_dma_read+0x160>
 6003674:	01 00 00 00 	nop 
 6003678:	81 c7 e0 08 	ret 
 600367c:	81 e8 00 00 	restore 
 6003680:	c4 00 60 8c 	ld  [ %g1 + 0x8c ], %g2
 6003684:	84 08 80 04 	and  %g2, %g4, %g2
 6003688:	80 a0 a0 02 	cmp  %g2, 2
 600368c:	08 bf ff fd 	bleu  6003680 <ONFI_dma_read+0x178>
 6003690:	84 16 60 92 	or  %i1, 0x92, %g2
 6003694:	9b 2b 60 08 	sll  %o5, 8, %o5
 6003698:	9a 10 80 0d 	or  %g2, %o5, %o5
 600369c:	da 20 c0 00 	st  %o5, [ %g3 ]
 60036a0:	09 10 00 00 	sethi  %hi(0x40000000), %g4
 60036a4:	c4 00 60 08 	ld  [ %g1 + 8 ], %g2
 60036a8:	80 88 80 04 	btst  %g2, %g4
 60036ac:	12 bf ff fe 	bne  60036a4 <ONFI_dma_read+0x19c>
 60036b0:	05 03 40 00 	sethi  %hi(0xd000000), %g2
 60036b4:	c4 00 a0 00 	ld  [ %g2 ], %g2
 60036b8:	09 01 80 1c 	sethi  %hi(0x6007000), %g4
 60036bc:	88 11 23 70 	or  %g4, 0x370, %g4	! 6007370 <tWHR>
 60036c0:	c4 09 00 02 	ldub  [ %g4 + %g2 ], %g2
 60036c4:	b2 16 60 94 	or  %i1, 0x94, %i1
 60036c8:	85 28 a0 08 	sll  %g2, 8, %g2
 60036cc:	b2 16 40 02 	or  %i1, %g2, %i1
 60036d0:	f2 20 c0 00 	st  %i1, [ %g3 ]
 60036d4:	07 10 00 00 	sethi  %hi(0x40000000), %g3
 60036d8:	c4 00 60 08 	ld  [ %g1 + 8 ], %g2
 60036dc:	80 88 80 03 	btst  %g2, %g3
 60036e0:	12 bf ff fe 	bne  60036d8 <ONFI_dma_read+0x1d0>
 60036e4:	01 00 00 00 	nop 
 60036e8:	81 c7 e0 08 	ret 
 60036ec:	81 e8 00 00 	restore 
 60036f0:	c6 00 a0 38 	ld  [ %g2 + 0x38 ], %g3
 60036f4:	84 10 20 20 	mov  0x20, %g2
 60036f8:	09 10 00 00 	sethi  %hi(0x40000000), %g4
 60036fc:	c4 20 c0 00 	st  %g2, [ %g3 ]
 6003700:	c4 00 60 08 	ld  [ %g1 + 8 ], %g2
 6003704:	80 88 80 04 	btst  %g2, %g4
 6003708:	12 bf ff fe 	bne  6003700 <ONFI_dma_read+0x1f8>
 600370c:	01 00 00 00 	nop 
 6003710:	30 bf ff 93 	b,a   600355c <ONFI_dma_read+0x54>
 6003714:	9a 06 20 03 	add  %i0, 3, %o5
 6003718:	9b 33 60 02 	srl  %o5, 2, %o5
 600371c:	9b 2b 60 01 	sll  %o5, 1, %o5
 6003720:	10 bf ff 8a 	b  6003548 <ONFI_dma_read+0x40>
 6003724:	9a 03 7f ff 	add  %o5, -1, %o5

06003728 <ONFI_dma_write>:
 6003728:	03 03 40 00 	sethi  %hi(0xd000000), %g1
 600372c:	c2 00 60 10 	ld  [ %g1 + 0x10 ], %g1	! d000010 <nfcReg>
 6003730:	07 00 00 3f 	sethi  %hi(0xfc00), %g3
 6003734:	86 10 e3 ff 	or  %g3, 0x3ff, %g3	! ffff <RAM_LENGTH+0x8fff>
 6003738:	c4 00 60 8c 	ld  [ %g1 + 0x8c ], %g2
 600373c:	84 08 80 03 	and  %g2, %g3, %g2
 6003740:	80 a0 a0 01 	cmp  %g2, 1
 6003744:	08 bf ff fd 	bleu  6003738 <ONFI_dma_write+0x10>
 6003748:	01 00 00 00 	nop 
 600374c:	c6 00 60 08 	ld  [ %g1 + 8 ], %g3
 6003750:	86 08 e0 06 	and  %g3, 6, %g3
 6003754:	80 a0 e0 04 	cmp  %g3, 4
 6003758:	02 80 00 24 	be  60037e8 <ONFI_dma_write+0xc0>
 600375c:	80 a0 e0 06 	cmp  %g3, 6
 6003760:	90 02 20 03 	add  %o0, 3, %o0
 6003764:	02 80 00 07 	be  6003780 <ONFI_dma_write+0x58>
 6003768:	85 32 20 02 	srl  %o0, 2, %g2
 600376c:	80 a0 e0 02 	cmp  %g3, 2
 6003770:	02 80 00 04 	be  6003780 <ONFI_dma_write+0x58>
 6003774:	85 28 a0 01 	sll  %g2, 1, %g2
 6003778:	90 0a 3f fc 	and  %o0, -4, %o0
 600377c:	84 02 3f ff 	add  %o0, -1, %g2
 6003780:	07 03 40 00 	sethi  %hi(0xd000000), %g3
 6003784:	c8 00 e0 38 	ld  [ %g3 + 0x38 ], %g4	! d000038 <nfcCmd>
 6003788:	85 28 a0 08 	sll  %g2, 8, %g2
 600378c:	86 12 60 b3 	or  %o1, 0xb3, %g3
 6003790:	84 10 c0 02 	or  %g3, %g2, %g2
 6003794:	c4 21 00 00 	st  %g2, [ %g4 ]
 6003798:	07 10 00 00 	sethi  %hi(0x40000000), %g3
 600379c:	c4 00 60 08 	ld  [ %g1 + 8 ], %g2
 60037a0:	80 88 80 03 	btst  %g2, %g3
 60037a4:	12 bf ff fe 	bne  600379c <ONFI_dma_write+0x74>
 60037a8:	05 03 40 00 	sethi  %hi(0xd000000), %g2
 60037ac:	c4 00 a0 00 	ld  [ %g2 ], %g2
 60037b0:	07 01 80 1c 	sethi  %hi(0x6007000), %g3
 60037b4:	86 10 e3 70 	or  %g3, 0x370, %g3	! 6007370 <tWHR>
 60037b8:	c4 08 c0 02 	ldub  [ %g3 + %g2 ], %g2
 60037bc:	92 12 60 b4 	or  %o1, 0xb4, %o1
 60037c0:	85 28 a0 08 	sll  %g2, 8, %g2
 60037c4:	92 12 40 02 	or  %o1, %g2, %o1
 60037c8:	d2 21 00 00 	st  %o1, [ %g4 ]
 60037cc:	07 10 00 00 	sethi  %hi(0x40000000), %g3
 60037d0:	c4 00 60 08 	ld  [ %g1 + 8 ], %g2
 60037d4:	80 88 80 03 	btst  %g2, %g3
 60037d8:	12 bf ff fe 	bne  60037d0 <ONFI_dma_write+0xa8>
 60037dc:	01 00 00 00 	nop 
 60037e0:	81 c3 e0 08 	retl 
 60037e4:	01 00 00 00 	nop 
 60037e8:	84 02 20 03 	add  %o0, 3, %g2
 60037ec:	85 30 a0 02 	srl  %g2, 2, %g2
 60037f0:	85 28 a0 01 	sll  %g2, 1, %g2
 60037f4:	10 bf ff e3 	b  6003780 <ONFI_dma_write+0x58>
 60037f8:	84 00 bf ff 	add  %g2, -1, %g2

060037fc <NFC_Init>:
 60037fc:	03 02 00 03 	sethi  %hi(0x8000c00), %g1
 6003800:	84 10 60 08 	or  %g1, 8, %g2	! 8000c08 <text_end+0x1ff9748>
 6003804:	82 10 60 04 	or  %g1, 4, %g1
 6003808:	c6 00 80 00 	ld  [ %g2 ], %g3
 600380c:	86 10 e0 0b 	or  %g3, 0xb, %g3
 6003810:	c6 20 80 00 	st  %g3, [ %g2 ]
 6003814:	c0 20 40 00 	clr  [ %g1 ]
 6003818:	c0 20 40 00 	clr  [ %g1 ]
 600381c:	c0 20 40 00 	clr  [ %g1 ]
 6003820:	c0 20 40 00 	clr  [ %g1 ]
 6003824:	03 02 00 01 	sethi  %hi(0x8000400), %g1
 6003828:	82 10 61 24 	or  %g1, 0x124, %g1	! 8000524 <text_end+0x1ff9064>
 600382c:	05 00 02 00 	sethi  %hi(0x80000), %g2
 6003830:	90 0a 20 ff 	and  %o0, 0xff, %o0
 6003834:	80 a2 20 05 	cmp  %o0, 5
 6003838:	c6 00 40 00 	ld  [ %g1 ], %g3
 600383c:	84 10 c0 02 	or  %g3, %g2, %g2
 6003840:	c4 20 40 00 	st  %g2, [ %g1 ]
 6003844:	28 80 00 0c 	bleu,a   6003874 <NFC_Init+0x78>
 6003848:	91 2a 20 02 	sll  %o0, 2, %o0
 600384c:	03 02 00 03 	sethi  %hi(0x8000c00), %g1
 6003850:	86 10 20 40 	mov  0x40, %g3
 6003854:	84 10 60 04 	or  %g1, 4, %g2
 6003858:	c6 20 40 00 	st  %g3, [ %g1 ]
 600385c:	03 03 40 00 	sethi  %hi(0xd000000), %g1
 6003860:	c2 00 60 10 	ld  [ %g1 + 0x10 ], %g1	! d000010 <nfcReg>
 6003864:	c0 20 80 00 	clr  [ %g2 ]
 6003868:	c0 20 40 00 	clr  [ %g1 ]
 600386c:	81 c3 e0 08 	retl 
 6003870:	01 00 00 00 	nop 
 6003874:	03 01 80 04 	sethi  %hi(0x6001000), %g1
 6003878:	82 10 61 4c 	or  %g1, 0x14c, %g1	! 600114c <memset+0x28>
 600387c:	c2 00 40 08 	ld  [ %g1 + %o0 ], %g1
 6003880:	81 c0 40 00 	jmp  %g1
 6003884:	01 00 00 00 	nop 
 6003888:	03 02 00 03 	sethi  %hi(0x8000c00), %g1
 600388c:	86 10 20 04 	mov  4, %g3
 6003890:	84 10 60 04 	or  %g1, 4, %g2
 6003894:	c6 20 40 00 	st  %g3, [ %g1 ]
 6003898:	03 03 40 00 	sethi  %hi(0xd000000), %g1
 600389c:	c2 00 60 10 	ld  [ %g1 + 0x10 ], %g1	! d000010 <nfcReg>
 60038a0:	c0 20 80 00 	clr  [ %g2 ]
 60038a4:	c0 20 40 00 	clr  [ %g1 ]
 60038a8:	81 c3 e0 08 	retl 
 60038ac:	01 00 00 00 	nop 
 60038b0:	03 02 00 03 	sethi  %hi(0x8000c00), %g1
 60038b4:	86 10 20 08 	mov  8, %g3
 60038b8:	84 10 60 04 	or  %g1, 4, %g2
 60038bc:	c6 20 40 00 	st  %g3, [ %g1 ]
 60038c0:	03 03 40 00 	sethi  %hi(0xd000000), %g1
 60038c4:	c2 00 60 10 	ld  [ %g1 + 0x10 ], %g1	! d000010 <nfcReg>
 60038c8:	c0 20 80 00 	clr  [ %g2 ]
 60038cc:	c0 20 40 00 	clr  [ %g1 ]
 60038d0:	81 c3 e0 08 	retl 
 60038d4:	01 00 00 00 	nop 
 60038d8:	03 02 00 03 	sethi  %hi(0x8000c00), %g1
 60038dc:	86 10 20 02 	mov  2, %g3
 60038e0:	84 10 60 04 	or  %g1, 4, %g2
 60038e4:	c6 20 40 00 	st  %g3, [ %g1 ]
 60038e8:	03 03 40 00 	sethi  %hi(0xd000000), %g1
 60038ec:	c2 00 60 10 	ld  [ %g1 + 0x10 ], %g1	! d000010 <nfcReg>
 60038f0:	c0 20 80 00 	clr  [ %g2 ]
 60038f4:	c0 20 40 00 	clr  [ %g1 ]
 60038f8:	81 c3 e0 08 	retl 
 60038fc:	01 00 00 00 	nop 

06003900 <NFC_Set_Mode>:
 6003900:	03 03 40 00 	sethi  %hi(0xd000000), %g1
 6003904:	c2 00 60 10 	ld  [ %g1 + 0x10 ], %g1	! d000010 <nfcReg>
 6003908:	07 00 00 3f 	sethi  %hi(0xfc00), %g3
 600390c:	86 10 e3 ff 	or  %g3, 0x3ff, %g3	! ffff <RAM_LENGTH+0x8fff>
 6003910:	c4 00 60 8c 	ld  [ %g1 + 0x8c ], %g2
 6003914:	84 08 80 03 	and  %g2, %g3, %g2
 6003918:	80 a0 a1 ff 	cmp  %g2, 0x1ff
 600391c:	08 bf ff fd 	bleu  6003910 <NFC_Set_Mode+0x10>
 6003920:	01 00 00 00 	nop 
 6003924:	c6 00 60 08 	ld  [ %g1 + 8 ], %g3
 6003928:	90 0a 20 ff 	and  %o0, 0xff, %o0
 600392c:	05 3f ff c0 	sethi  %hi(0xffff0000), %g2
 6003930:	84 08 c0 02 	and  %g3, %g2, %g2
 6003934:	07 00 00 07 	sethi  %hi(0x1c00), %g3
 6003938:	86 10 e3 00 	or  %g3, 0x300, %g3	! 1f00 <data_start+0x1f00>
 600393c:	84 10 80 03 	or  %g2, %g3, %g2
 6003940:	84 10 80 08 	or  %g2, %o0, %g2
 6003944:	c4 20 60 08 	st  %g2, [ %g1 + 8 ]
 6003948:	80 8a 20 02 	btst  2, %o0
 600394c:	12 80 00 0d 	bne  6003980 <NFC_Set_Mode+0x80>
 6003950:	05 00 00 1c 	sethi  %hi(0x7000), %g2
 6003954:	84 10 a0 20 	or  %g2, 0x20, %g2	! 7020 <RAM_LENGTH+0x20>
 6003958:	c4 20 60 c4 	st  %g2, [ %g1 + 0xc4 ]
 600395c:	84 10 23 84 	mov  0x384, %g2
 6003960:	c4 20 60 c8 	st  %g2, [ %g1 + 0xc8 ]
 6003964:	84 10 20 82 	mov  0x82, %g2
 6003968:	c4 20 60 cc 	st  %g2, [ %g1 + 0xcc ]
 600396c:	05 00 40 01 	sethi  %hi(0x1000400), %g2
 6003970:	84 10 a2 84 	or  %g2, 0x284, %g2	! 1000684 <RAM_LENGTH+0xff9684>
 6003974:	c4 20 60 d0 	st  %g2, [ %g1 + 0xd0 ]
 6003978:	81 c3 e0 08 	retl 
 600397c:	01 00 00 00 	nop 
 6003980:	84 10 a0 20 	or  %g2, 0x20, %g2
 6003984:	c4 20 60 c4 	st  %g2, [ %g1 + 0xc4 ]
 6003988:	05 00 00 66 	sethi  %hi(0x19800), %g2
 600398c:	84 10 a2 06 	or  %g2, 0x206, %g2	! 19a06 <RAM_LENGTH+0x12a06>
 6003990:	c4 20 60 c8 	st  %g2, [ %g1 + 0xc8 ]
 6003994:	84 10 20 84 	mov  0x84, %g2
 6003998:	c4 20 60 cc 	st  %g2, [ %g1 + 0xcc ]
 600399c:	86 10 21 82 	mov  0x182, %g3
 60039a0:	c6 20 60 d0 	st  %g3, [ %g1 + 0xd0 ]
 60039a4:	c4 20 60 d4 	st  %g2, [ %g1 + 0xd4 ]
 60039a8:	05 00 00 62 	sethi  %hi(0x18800), %g2
 60039ac:	84 10 a2 06 	or  %g2, 0x206, %g2	! 18a06 <RAM_LENGTH+0x11a06>
 60039b0:	c4 20 60 d8 	st  %g2, [ %g1 + 0xd8 ]
 60039b4:	05 00 40 00 	sethi  %hi(0x1000000), %g2
 60039b8:	84 10 a3 84 	or  %g2, 0x384, %g2	! 1000384 <RAM_LENGTH+0xff9384>
 60039bc:	c4 20 60 dc 	st  %g2, [ %g1 + 0xdc ]
 60039c0:	81 c3 e0 08 	retl 
 60039c4:	01 00 00 00 	nop 

060039c8 <ONFI_set_speed>:
 60039c8:	9d e3 bf a0 	save  %sp, -96, %sp
 60039cc:	03 03 40 00 	sethi  %hi(0xd000000), %g1
 60039d0:	c2 00 60 10 	ld  [ %g1 + 0x10 ], %g1	! d000010 <nfcReg>
 60039d4:	07 00 00 3f 	sethi  %hi(0xfc00), %g3
 60039d8:	86 10 e3 ff 	or  %g3, 0x3ff, %g3	! ffff <RAM_LENGTH+0x8fff>
 60039dc:	c4 00 60 8c 	ld  [ %g1 + 0x8c ], %g2
 60039e0:	84 08 80 03 	and  %g2, %g3, %g2
 60039e4:	80 a0 a1 ff 	cmp  %g2, 0x1ff
 60039e8:	08 bf ff fd 	bleu  60039dc <ONFI_set_speed+0x14>
 60039ec:	05 03 40 00 	sethi  %hi(0xd000000), %g2
 60039f0:	c6 00 a0 38 	ld  [ %g2 + 0x38 ], %g3	! d000038 <nfcCmd>
 60039f4:	05 00 00 04 	sethi  %hi(0x1000), %g2
 60039f8:	9a 10 20 49 	mov  0x49, %o5
 60039fc:	09 10 00 00 	sethi  %hi(0x40000000), %g4
 6003a00:	da 20 c0 02 	st  %o5, [ %g3 + %g2 ]
 6003a04:	c4 00 60 08 	ld  [ %g1 + 8 ], %g2
 6003a08:	80 88 80 04 	btst  %g2, %g4
 6003a0c:	12 bf ff fe 	bne  6003a04 <ONFI_set_speed+0x3c>
 6003a10:	05 01 80 1c 	sethi  %hi(0x6007000), %g2
 6003a14:	84 10 a3 40 	or  %g2, 0x340, %g2	! 6007340 <tCLS>
 6003a18:	b0 0e 20 ff 	and  %i0, 0xff, %i0
 6003a1c:	c8 08 80 18 	ldub  [ %g2 + %i0 ], %g4
 6003a20:	05 00 00 04 	sethi  %hi(0x1000), %g2
 6003a24:	84 10 a0 04 	or  %g2, 4, %g2	! 1004 <data_start+0x1004>
 6003a28:	89 29 20 08 	sll  %g4, 8, %g4
 6003a2c:	88 11 20 48 	or  %g4, 0x48, %g4
 6003a30:	c8 20 c0 02 	st  %g4, [ %g3 + %g2 ]
 6003a34:	09 10 00 00 	sethi  %hi(0x40000000), %g4
 6003a38:	c4 00 60 08 	ld  [ %g1 + 8 ], %g2
 6003a3c:	80 88 80 04 	btst  %g2, %g4
 6003a40:	12 bf ff fe 	bne  6003a38 <ONFI_set_speed+0x70>
 6003a44:	05 01 80 1c 	sethi  %hi(0x6007000), %g2
 6003a48:	84 10 a3 48 	or  %g2, 0x348, %g2	! 6007348 <tCLH>
 6003a4c:	c8 08 80 18 	ldub  [ %g2 + %i0 ], %g4
 6003a50:	05 00 00 04 	sethi  %hi(0x1000), %g2
 6003a54:	84 10 a0 08 	or  %g2, 8, %g2	! 1008 <data_start+0x1008>
 6003a58:	89 29 20 08 	sll  %g4, 8, %g4
 6003a5c:	88 11 20 c1 	or  %g4, 0xc1, %g4
 6003a60:	c8 20 c0 02 	st  %g4, [ %g3 + %g2 ]
 6003a64:	09 10 00 00 	sethi  %hi(0x40000000), %g4
 6003a68:	c4 00 60 08 	ld  [ %g1 + 8 ], %g2
 6003a6c:	80 88 80 04 	btst  %g2, %g4
 6003a70:	12 bf ff fe 	bne  6003a68 <ONFI_set_speed+0xa0>
 6003a74:	05 00 00 04 	sethi  %hi(0x1000), %g2
 6003a78:	84 10 a0 0c 	or  %g2, 0xc, %g2	! 100c <data_start+0x100c>
 6003a7c:	9a 10 20 4a 	mov  0x4a, %o5
 6003a80:	09 10 00 00 	sethi  %hi(0x40000000), %g4
 6003a84:	da 20 c0 02 	st  %o5, [ %g3 + %g2 ]
 6003a88:	c4 00 60 08 	ld  [ %g1 + 8 ], %g2
 6003a8c:	80 88 80 04 	btst  %g2, %g4
 6003a90:	12 bf ff fe 	bne  6003a88 <ONFI_set_speed+0xc0>
 6003a94:	05 01 80 1c 	sethi  %hi(0x6007000), %g2
 6003a98:	84 10 a3 50 	or  %g2, 0x350, %g2	! 6007350 <tALS>
 6003a9c:	c8 08 80 18 	ldub  [ %g2 + %i0 ], %g4
 6003aa0:	05 00 00 04 	sethi  %hi(0x1000), %g2
 6003aa4:	84 10 a0 10 	or  %g2, 0x10, %g2	! 1010 <data_start+0x1010>
 6003aa8:	89 29 20 08 	sll  %g4, 8, %g4
 6003aac:	88 11 20 48 	or  %g4, 0x48, %g4
 6003ab0:	c8 20 c0 02 	st  %g4, [ %g3 + %g2 ]
 6003ab4:	09 10 00 00 	sethi  %hi(0x40000000), %g4
 6003ab8:	c4 00 60 08 	ld  [ %g1 + 8 ], %g2
 6003abc:	80 88 80 04 	btst  %g2, %g4
 6003ac0:	12 bf ff fe 	bne  6003ab8 <ONFI_set_speed+0xf0>
 6003ac4:	05 01 80 1c 	sethi  %hi(0x6007000), %g2
 6003ac8:	84 10 a3 58 	or  %g2, 0x358, %g2	! 6007358 <tALH>
 6003acc:	c8 08 80 18 	ldub  [ %g2 + %i0 ], %g4
 6003ad0:	05 00 00 04 	sethi  %hi(0x1000), %g2
 6003ad4:	84 10 a0 14 	or  %g2, 0x14, %g2	! 1014 <data_start+0x1014>
 6003ad8:	89 29 20 08 	sll  %g4, 8, %g4
 6003adc:	88 11 20 c2 	or  %g4, 0xc2, %g4
 6003ae0:	c8 20 c0 02 	st  %g4, [ %g3 + %g2 ]
 6003ae4:	09 10 00 00 	sethi  %hi(0x40000000), %g4
 6003ae8:	c4 00 60 08 	ld  [ %g1 + 8 ], %g2
 6003aec:	80 88 80 04 	btst  %g2, %g4
 6003af0:	12 bf ff fe 	bne  6003ae8 <ONFI_set_speed+0x120>
 6003af4:	05 00 00 04 	sethi  %hi(0x1000), %g2
 6003af8:	84 10 a0 18 	or  %g2, 0x18, %g2	! 1018 <data_start+0x1018>
 6003afc:	9a 10 21 04 	mov  0x104, %o5
 6003b00:	09 10 00 00 	sethi  %hi(0x40000000), %g4
 6003b04:	da 20 c0 02 	st  %o5, [ %g3 + %g2 ]
 6003b08:	c4 00 60 08 	ld  [ %g1 + 8 ], %g2
 6003b0c:	80 88 80 04 	btst  %g2, %g4
 6003b10:	12 bf ff fe 	bne  6003b08 <ONFI_set_speed+0x140>
 6003b14:	05 01 80 1c 	sethi  %hi(0x6007000), %g2
 6003b18:	84 10 a3 60 	or  %g2, 0x360, %g2	! 6007360 <tRP>
 6003b1c:	c8 08 80 18 	ldub  [ %g2 + %i0 ], %g4
 6003b20:	05 00 00 04 	sethi  %hi(0x1000), %g2
 6003b24:	84 10 a0 1c 	or  %g2, 0x1c, %g2	! 101c <data_start+0x101c>
 6003b28:	89 29 20 08 	sll  %g4, 8, %g4
 6003b2c:	88 11 20 84 	or  %g4, 0x84, %g4
 6003b30:	c8 20 c0 02 	st  %g4, [ %g3 + %g2 ]
 6003b34:	09 10 00 00 	sethi  %hi(0x40000000), %g4
 6003b38:	c4 00 60 08 	ld  [ %g1 + 8 ], %g2
 6003b3c:	80 88 80 04 	btst  %g2, %g4
 6003b40:	12 bf ff fe 	bne  6003b38 <ONFI_set_speed+0x170>
 6003b44:	05 00 00 04 	sethi  %hi(0x1000), %g2
 6003b48:	84 10 a0 20 	or  %g2, 0x20, %g2	! 1020 <data_start+0x1020>
 6003b4c:	9a 10 21 48 	mov  0x148, %o5
 6003b50:	09 10 00 00 	sethi  %hi(0x40000000), %g4
 6003b54:	da 20 c0 02 	st  %o5, [ %g3 + %g2 ]
 6003b58:	c4 00 60 08 	ld  [ %g1 + 8 ], %g2
 6003b5c:	80 88 80 04 	btst  %g2, %g4
 6003b60:	12 bf ff fe 	bne  6003b58 <ONFI_set_speed+0x190>
 6003b64:	05 01 80 1c 	sethi  %hi(0x6007000), %g2
 6003b68:	84 10 a3 68 	or  %g2, 0x368, %g2	! 6007368 <tWP>
 6003b6c:	c8 08 80 18 	ldub  [ %g2 + %i0 ], %g4
 6003b70:	05 00 00 04 	sethi  %hi(0x1000), %g2
 6003b74:	84 10 a0 24 	or  %g2, 0x24, %g2	! 1024 <data_start+0x1024>
 6003b78:	89 29 20 08 	sll  %g4, 8, %g4
 6003b7c:	88 11 20 c8 	or  %g4, 0xc8, %g4
 6003b80:	c8 20 c0 02 	st  %g4, [ %g3 + %g2 ]
 6003b84:	07 10 00 00 	sethi  %hi(0x40000000), %g3
 6003b88:	c4 00 60 08 	ld  [ %g1 + 8 ], %g2
 6003b8c:	80 88 80 03 	btst  %g2, %g3
 6003b90:	12 bf ff fe 	bne  6003b88 <ONFI_set_speed+0x1c0>
 6003b94:	01 00 00 00 	nop 
 6003b98:	03 03 40 00 	sethi  %hi(0xd000000), %g1
 6003b9c:	f0 20 60 00 	st  %i0, [ %g1 ]
 6003ba0:	81 c7 e0 08 	ret 
 6003ba4:	81 e8 00 00 	restore 

06003ba8 <ONFI_init>:
 6003ba8:	9d e3 bf a0 	save  %sp, -96, %sp
 6003bac:	7f ff ff 14 	call  60037fc <NFC_Init>
 6003bb0:	90 0e 20 ff 	and  %i0, 0xff, %o0
 6003bb4:	7f ff ff 53 	call  6003900 <NFC_Set_Mode>
 6003bb8:	90 0e 60 ff 	and  %i1, 0xff, %o0
 6003bbc:	03 03 40 00 	sethi  %hi(0xd000000), %g1
 6003bc0:	c2 00 60 10 	ld  [ %g1 + 0x10 ], %g1	! d000010 <nfcReg>
 6003bc4:	c6 00 60 04 	ld  [ %g1 + 4 ], %g3
 6003bc8:	86 10 e0 c0 	or  %g3, 0xc0, %g3
 6003bcc:	05 03 40 00 	sethi  %hi(0xd000000), %g2
 6003bd0:	c6 20 60 04 	st  %g3, [ %g1 + 4 ]
 6003bd4:	c4 00 a0 38 	ld  [ %g2 + 0x38 ], %g2
 6003bd8:	07 03 40 00 	sethi  %hi(0xd000000), %g3
 6003bdc:	09 10 00 00 	sethi  %hi(0x40000000), %g4
 6003be0:	c0 20 e0 00 	clr  [ %g3 ]
 6003be4:	86 10 22 00 	mov  0x200, %g3
 6003be8:	c6 20 a8 00 	st  %g3, [ %g2 + 0x800 ]
 6003bec:	c6 00 60 08 	ld  [ %g1 + 8 ], %g3
 6003bf0:	80 88 c0 04 	btst  %g3, %g4
 6003bf4:	12 bf ff fe 	bne  6003bec <ONFI_init+0x44>
 6003bf8:	86 10 22 63 	mov  0x263, %g3
 6003bfc:	c6 20 a8 04 	st  %g3, [ %g2 + 0x804 ]
 6003c00:	09 10 00 00 	sethi  %hi(0x40000000), %g4
 6003c04:	c6 00 60 08 	ld  [ %g1 + 8 ], %g3
 6003c08:	80 88 c0 04 	btst  %g3, %g4
 6003c0c:	12 bf ff fe 	bne  6003c04 <ONFI_init+0x5c>
 6003c10:	86 10 22 c6 	mov  0x2c6, %g3
 6003c14:	c6 20 a8 08 	st  %g3, [ %g2 + 0x808 ]
 6003c18:	09 10 00 00 	sethi  %hi(0x40000000), %g4
 6003c1c:	c6 00 60 08 	ld  [ %g1 + 8 ], %g3
 6003c20:	80 88 c0 04 	btst  %g3, %g4
 6003c24:	12 bf ff fe 	bne  6003c1c <ONFI_init+0x74>
 6003c28:	86 10 22 e8 	mov  0x2e8, %g3
 6003c2c:	c6 20 a8 0c 	st  %g3, [ %g2 + 0x80c ]
 6003c30:	09 10 00 00 	sethi  %hi(0x40000000), %g4
 6003c34:	c6 00 60 08 	ld  [ %g1 + 8 ], %g3
 6003c38:	80 88 c0 04 	btst  %g3, %g4
 6003c3c:	12 bf ff fe 	bne  6003c34 <ONFI_init+0x8c>
 6003c40:	86 10 21 ce 	mov  0x1ce, %g3
 6003c44:	c6 20 a8 10 	st  %g3, [ %g2 + 0x810 ]
 6003c48:	09 10 00 00 	sethi  %hi(0x40000000), %g4
 6003c4c:	c6 00 60 08 	ld  [ %g1 + 8 ], %g3
 6003c50:	80 88 c0 04 	btst  %g3, %g4
 6003c54:	12 bf ff fe 	bne  6003c4c <ONFI_init+0xa4>
 6003c58:	86 10 21 ef 	mov  0x1ef, %g3
 6003c5c:	c6 20 a8 18 	st  %g3, [ %g2 + 0x818 ]
 6003c60:	09 10 00 00 	sethi  %hi(0x40000000), %g4
 6003c64:	c6 00 60 08 	ld  [ %g1 + 8 ], %g3
 6003c68:	80 88 c0 04 	btst  %g3, %g4
 6003c6c:	12 bf ff fe 	bne  6003c64 <ONFI_init+0xbc>
 6003c70:	07 00 00 04 	sethi  %hi(0x1000), %g3
 6003c74:	9a 10 20 49 	mov  0x49, %o5
 6003c78:	09 10 00 00 	sethi  %hi(0x40000000), %g4
 6003c7c:	da 20 80 03 	st  %o5, [ %g2 + %g3 ]
 6003c80:	c6 00 60 08 	ld  [ %g1 + 8 ], %g3
 6003c84:	80 88 c0 04 	btst  %g3, %g4
 6003c88:	12 bf ff fe 	bne  6003c80 <ONFI_init+0xd8>
 6003c8c:	07 00 00 04 	sethi  %hi(0x1000), %g3
 6003c90:	86 10 e0 04 	or  %g3, 4, %g3	! 1004 <data_start+0x1004>
 6003c94:	9a 10 23 48 	mov  0x348, %o5
 6003c98:	09 10 00 00 	sethi  %hi(0x40000000), %g4
 6003c9c:	da 20 80 03 	st  %o5, [ %g2 + %g3 ]
 6003ca0:	c6 00 60 08 	ld  [ %g1 + 8 ], %g3
 6003ca4:	80 88 c0 04 	btst  %g3, %g4
 6003ca8:	12 bf ff fe 	bne  6003ca0 <ONFI_init+0xf8>
 6003cac:	07 00 00 04 	sethi  %hi(0x1000), %g3
 6003cb0:	86 10 e0 08 	or  %g3, 8, %g3	! 1008 <data_start+0x1008>
 6003cb4:	9a 10 21 c1 	mov  0x1c1, %o5
 6003cb8:	09 10 00 00 	sethi  %hi(0x40000000), %g4
 6003cbc:	da 20 80 03 	st  %o5, [ %g2 + %g3 ]
 6003cc0:	c6 00 60 08 	ld  [ %g1 + 8 ], %g3
 6003cc4:	80 88 c0 04 	btst  %g3, %g4
 6003cc8:	12 bf ff fe 	bne  6003cc0 <ONFI_init+0x118>
 6003ccc:	07 00 00 04 	sethi  %hi(0x1000), %g3
 6003cd0:	86 10 e0 0c 	or  %g3, 0xc, %g3	! 100c <data_start+0x100c>
 6003cd4:	9a 10 20 4a 	mov  0x4a, %o5
 6003cd8:	09 10 00 00 	sethi  %hi(0x40000000), %g4
 6003cdc:	da 20 80 03 	st  %o5, [ %g2 + %g3 ]
 6003ce0:	c6 00 60 08 	ld  [ %g1 + 8 ], %g3
 6003ce4:	80 88 c0 04 	btst  %g3, %g4
 6003ce8:	12 bf ff fe 	bne  6003ce0 <ONFI_init+0x138>
 6003cec:	07 00 00 04 	sethi  %hi(0x1000), %g3
 6003cf0:	86 10 e0 10 	or  %g3, 0x10, %g3	! 1010 <data_start+0x1010>
 6003cf4:	9a 10 23 48 	mov  0x348, %o5
 6003cf8:	09 10 00 00 	sethi  %hi(0x40000000), %g4
 6003cfc:	da 20 80 03 	st  %o5, [ %g2 + %g3 ]
 6003d00:	c6 00 60 08 	ld  [ %g1 + 8 ], %g3
 6003d04:	80 88 c0 04 	btst  %g3, %g4
 6003d08:	12 bf ff fe 	bne  6003d00 <ONFI_init+0x158>
 6003d0c:	07 00 00 04 	sethi  %hi(0x1000), %g3
 6003d10:	86 10 e0 14 	or  %g3, 0x14, %g3	! 1014 <data_start+0x1014>
 6003d14:	9a 10 21 c2 	mov  0x1c2, %o5
 6003d18:	09 10 00 00 	sethi  %hi(0x40000000), %g4
 6003d1c:	da 20 80 03 	st  %o5, [ %g2 + %g3 ]
 6003d20:	c6 00 60 08 	ld  [ %g1 + 8 ], %g3
 6003d24:	80 88 c0 04 	btst  %g3, %g4
 6003d28:	12 bf ff fe 	bne  6003d20 <ONFI_init+0x178>
 6003d2c:	07 00 00 04 	sethi  %hi(0x1000), %g3
 6003d30:	86 10 e0 18 	or  %g3, 0x18, %g3	! 1018 <data_start+0x1018>
 6003d34:	9a 10 21 04 	mov  0x104, %o5
 6003d38:	09 10 00 00 	sethi  %hi(0x40000000), %g4
 6003d3c:	da 20 80 03 	st  %o5, [ %g2 + %g3 ]
 6003d40:	c6 00 60 08 	ld  [ %g1 + 8 ], %g3
 6003d44:	80 88 c0 04 	btst  %g3, %g4
 6003d48:	12 bf ff fe 	bne  6003d40 <ONFI_init+0x198>
 6003d4c:	07 00 00 04 	sethi  %hi(0x1000), %g3
 6003d50:	86 10 e0 1c 	or  %g3, 0x1c, %g3	! 101c <data_start+0x101c>
 6003d54:	9a 10 23 84 	mov  0x384, %o5
 6003d58:	09 10 00 00 	sethi  %hi(0x40000000), %g4
 6003d5c:	da 20 80 03 	st  %o5, [ %g2 + %g3 ]
 6003d60:	c6 00 60 08 	ld  [ %g1 + 8 ], %g3
 6003d64:	80 88 c0 04 	btst  %g3, %g4
 6003d68:	12 bf ff fe 	bne  6003d60 <ONFI_init+0x1b8>
 6003d6c:	07 00 00 04 	sethi  %hi(0x1000), %g3
 6003d70:	86 10 e0 20 	or  %g3, 0x20, %g3	! 1020 <data_start+0x1020>
 6003d74:	9a 10 21 48 	mov  0x148, %o5
 6003d78:	09 10 00 00 	sethi  %hi(0x40000000), %g4
 6003d7c:	da 20 80 03 	st  %o5, [ %g2 + %g3 ]
 6003d80:	c6 00 60 08 	ld  [ %g1 + 8 ], %g3
 6003d84:	80 88 c0 04 	btst  %g3, %g4
 6003d88:	12 bf ff fe 	bne  6003d80 <ONFI_init+0x1d8>
 6003d8c:	07 00 00 04 	sethi  %hi(0x1000), %g3
 6003d90:	86 10 e0 24 	or  %g3, 0x24, %g3	! 1024 <data_start+0x1024>
 6003d94:	9a 10 23 c8 	mov  0x3c8, %o5
 6003d98:	09 10 00 00 	sethi  %hi(0x40000000), %g4
 6003d9c:	da 20 80 03 	st  %o5, [ %g2 + %g3 ]
 6003da0:	c6 00 60 08 	ld  [ %g1 + 8 ], %g3
 6003da4:	80 88 c0 04 	btst  %g3, %g4
 6003da8:	12 bf ff fe 	bne  6003da0 <ONFI_init+0x1f8>
 6003dac:	07 00 00 04 	sethi  %hi(0x1000), %g3
 6003db0:	86 10 e0 38 	or  %g3, 0x38, %g3	! 1038 <data_start+0x1038>
 6003db4:	9a 10 20 80 	mov  0x80, %o5
 6003db8:	09 10 00 00 	sethi  %hi(0x40000000), %g4
 6003dbc:	da 20 80 03 	st  %o5, [ %g2 + %g3 ]
 6003dc0:	c6 00 60 08 	ld  [ %g1 + 8 ], %g3
 6003dc4:	80 88 c0 04 	btst  %g3, %g4
 6003dc8:	12 bf ff fe 	bne  6003dc0 <ONFI_init+0x218>
 6003dcc:	07 00 00 04 	sethi  %hi(0x1000), %g3
 6003dd0:	86 10 e0 3c 	or  %g3, 0x3c, %g3	! 103c <data_start+0x103c>
 6003dd4:	9a 10 20 90 	mov  0x90, %o5
 6003dd8:	09 10 00 00 	sethi  %hi(0x40000000), %g4
 6003ddc:	da 20 80 03 	st  %o5, [ %g2 + %g3 ]
 6003de0:	c6 00 60 08 	ld  [ %g1 + 8 ], %g3
 6003de4:	80 88 c0 04 	btst  %g3, %g4
 6003de8:	12 bf ff fe 	bne  6003de0 <ONFI_init+0x238>
 6003dec:	07 00 00 04 	sethi  %hi(0x1000), %g3
 6003df0:	86 10 e0 40 	or  %g3, 0x40, %g3	! 1040 <data_start+0x1040>
 6003df4:	9a 10 20 41 	mov  0x41, %o5
 6003df8:	09 10 00 00 	sethi  %hi(0x40000000), %g4
 6003dfc:	da 20 80 03 	st  %o5, [ %g2 + %g3 ]
 6003e00:	c6 00 60 08 	ld  [ %g1 + 8 ], %g3
 6003e04:	80 88 c0 04 	btst  %g3, %g4
 6003e08:	12 bf ff fe 	bne  6003e00 <ONFI_init+0x258>
 6003e0c:	07 00 00 04 	sethi  %hi(0x1000), %g3
 6003e10:	86 10 e0 44 	or  %g3, 0x44, %g3	! 1044 <data_start+0x1044>
 6003e14:	9a 10 20 41 	mov  0x41, %o5
 6003e18:	09 10 00 00 	sethi  %hi(0x40000000), %g4
 6003e1c:	da 20 80 03 	st  %o5, [ %g2 + %g3 ]
 6003e20:	c6 00 60 08 	ld  [ %g1 + 8 ], %g3
 6003e24:	80 88 c0 04 	btst  %g3, %g4
 6003e28:	12 bf ff fe 	bne  6003e20 <ONFI_init+0x278>
 6003e2c:	07 00 00 04 	sethi  %hi(0x1000), %g3
 6003e30:	86 10 e0 48 	or  %g3, 0x48, %g3	! 1048 <data_start+0x1048>
 6003e34:	9a 10 20 c0 	mov  0xc0, %o5
 6003e38:	09 10 00 00 	sethi  %hi(0x40000000), %g4
 6003e3c:	da 20 80 03 	st  %o5, [ %g2 + %g3 ]
 6003e40:	c6 00 60 08 	ld  [ %g1 + 8 ], %g3
 6003e44:	80 88 c0 04 	btst  %g3, %g4
 6003e48:	12 bf ff fe 	bne  6003e40 <ONFI_init+0x298>
 6003e4c:	07 00 00 04 	sethi  %hi(0x1000), %g3
 6003e50:	86 10 e0 4c 	or  %g3, 0x4c, %g3	! 104c <data_start+0x104c>
 6003e54:	9a 10 20 42 	mov  0x42, %o5
 6003e58:	09 10 00 00 	sethi  %hi(0x40000000), %g4
 6003e5c:	da 20 80 03 	st  %o5, [ %g2 + %g3 ]
 6003e60:	c6 00 60 08 	ld  [ %g1 + 8 ], %g3
 6003e64:	80 88 c0 04 	btst  %g3, %g4
 6003e68:	12 bf ff fe 	bne  6003e60 <ONFI_init+0x2b8>
 6003e6c:	07 00 00 04 	sethi  %hi(0x1000), %g3
 6003e70:	86 10 e0 50 	or  %g3, 0x50, %g3	! 1050 <data_start+0x1050>
 6003e74:	9a 10 20 42 	mov  0x42, %o5
 6003e78:	09 10 00 00 	sethi  %hi(0x40000000), %g4
 6003e7c:	da 20 80 03 	st  %o5, [ %g2 + %g3 ]
 6003e80:	c6 00 60 08 	ld  [ %g1 + 8 ], %g3
 6003e84:	80 88 c0 04 	btst  %g3, %g4
 6003e88:	12 bf ff fe 	bne  6003e80 <ONFI_init+0x2d8>
 6003e8c:	07 00 00 04 	sethi  %hi(0x1000), %g3
 6003e90:	86 10 e0 54 	or  %g3, 0x54, %g3	! 1054 <data_start+0x1054>
 6003e94:	9a 10 20 c0 	mov  0xc0, %o5
 6003e98:	09 10 00 00 	sethi  %hi(0x40000000), %g4
 6003e9c:	da 20 80 03 	st  %o5, [ %g2 + %g3 ]
 6003ea0:	c6 00 60 08 	ld  [ %g1 + 8 ], %g3
 6003ea4:	80 88 c0 04 	btst  %g3, %g4
 6003ea8:	12 bf ff fe 	bne  6003ea0 <ONFI_init+0x2f8>
 6003eac:	07 00 00 04 	sethi  %hi(0x1000), %g3
 6003eb0:	86 10 e0 58 	or  %g3, 0x58, %g3	! 1058 <data_start+0x1058>
 6003eb4:	9a 10 20 a3 	mov  0xa3, %o5
 6003eb8:	09 10 00 00 	sethi  %hi(0x40000000), %g4
 6003ebc:	da 20 80 03 	st  %o5, [ %g2 + %g3 ]
 6003ec0:	c6 00 60 08 	ld  [ %g1 + 8 ], %g3
 6003ec4:	80 88 c0 04 	btst  %g3, %g4
 6003ec8:	12 bf ff fe 	bne  6003ec0 <ONFI_init+0x318>
 6003ecc:	9a 10 20 e3 	mov  0xe3, %o5
 6003ed0:	09 00 00 04 	sethi  %hi(0x1000), %g4
 6003ed4:	88 11 20 5c 	or  %g4, 0x5c, %g4	! 105c <data_start+0x105c>
 6003ed8:	07 10 00 00 	sethi  %hi(0x40000000), %g3
 6003edc:	da 20 80 04 	st  %o5, [ %g2 + %g4 ]
 6003ee0:	c4 00 60 08 	ld  [ %g1 + 8 ], %g2
 6003ee4:	80 88 80 03 	btst  %g2, %g3
 6003ee8:	12 bf ff fe 	bne  6003ee0 <ONFI_init+0x338>
 6003eec:	05 00 85 40 	sethi  %hi(0x2150000), %g2
 6003ef0:	84 10 a1 ff 	or  %g2, 0x1ff, %g2	! 21501ff <RAM_LENGTH+0x21491ff>
 6003ef4:	c4 20 60 40 	st  %g2, [ %g1 + 0x40 ]
 6003ef8:	05 01 19 00 	sethi  %hi(0x4640000), %g2
 6003efc:	84 10 a0 18 	or  %g2, 0x18, %g2	! 4640018 <RAM_LENGTH+0x4639018>
 6003f00:	c4 20 60 44 	st  %g2, [ %g1 + 0x44 ]
 6003f04:	05 00 0b c0 	sethi  %hi(0x2f0000), %g2
 6003f08:	84 10 a0 19 	or  %g2, 0x19, %g2	! 2f0019 <RAM_LENGTH+0x2e9019>
 6003f0c:	c4 20 60 48 	st  %g2, [ %g1 + 0x48 ]
 6003f10:	b0 10 20 00 	clr  %i0
 6003f14:	05 00 8a c0 	sethi  %hi(0x22b0000), %g2
 6003f18:	84 10 a0 18 	or  %g2, 0x18, %g2	! 22b0018 <RAM_LENGTH+0x22a9018>
 6003f1c:	c4 20 60 4c 	st  %g2, [ %g1 + 0x4c ]
 6003f20:	81 c7 e0 08 	ret 
 6003f24:	81 e8 00 00 	restore 

06003f28 <setup_NFC_AUX>:
 6003f28:	03 02 00 01 	sethi  %hi(0x8000400), %g1
 6003f2c:	05 03 40 00 	sethi  %hi(0xd000000), %g2
 6003f30:	82 10 61 20 	or  %g1, 0x120, %g1
 6003f34:	c4 00 a0 10 	ld  [ %g2 + 0x10 ], %g2
 6003f38:	c6 00 40 00 	ld  [ %g1 ], %g3
 6003f3c:	86 10 e0 20 	or  %g3, 0x20, %g3
 6003f40:	c6 20 40 00 	st  %g3, [ %g1 ]
 6003f44:	c0 20 a0 28 	clr  [ %g2 + 0x28 ]
 6003f48:	03 03 40 00 	sethi  %hi(0xd000000), %g1
 6003f4c:	07 01 80 1c 	sethi  %hi(0x6007000), %g3
 6003f50:	c8 00 60 14 	ld  [ %g1 + 0x14 ], %g4
 6003f54:	86 10 e1 20 	or  %g3, 0x120, %g3
 6003f58:	82 10 20 00 	clr  %g1
 6003f5c:	c4 00 c0 01 	ld  [ %g3 + %g1 ], %g2
 6003f60:	c4 21 00 01 	st  %g2, [ %g4 + %g1 ]
 6003f64:	82 00 60 04 	add  %g1, 4, %g1
 6003f68:	80 a0 60 34 	cmp  %g1, 0x34
 6003f6c:	32 bf ff fd 	bne,a   6003f60 <setup_NFC_AUX+0x38>
 6003f70:	c4 00 c0 01 	ld  [ %g3 + %g1 ], %g2
 6003f74:	81 c3 e0 08 	retl 
 6003f78:	01 00 00 00 	nop 

06003f7c <setup_NFC_FTL>:
 6003f7c:	9d e3 bf a0 	save  %sp, -96, %sp
 6003f80:	03 02 00 01 	sethi  %hi(0x8000400), %g1
 6003f84:	82 10 61 20 	or  %g1, 0x120, %g1	! 8000520 <text_end+0x1ff9060>
 6003f88:	c4 00 40 00 	ld  [ %g1 ], %g2
 6003f8c:	84 10 a0 20 	or  %g2, 0x20, %g2
 6003f90:	c4 20 40 00 	st  %g2, [ %g1 ]
 6003f94:	97 2e 20 10 	sll  %i0, 0x10, %o3
 6003f98:	1b 01 80 1c 	sethi  %hi(0x6007000), %o5
 6003f9c:	97 32 e0 10 	srl  %o3, 0x10, %o3
 6003fa0:	9a 13 61 20 	or  %o5, 0x120, %o5
 6003fa4:	96 02 e0 07 	add  %o3, 7, %o3
 6003fa8:	97 3a e0 03 	sra  %o3, 3, %o3
 6003fac:	99 2a e0 13 	sll  %o3, 0x13, %o4
 6003fb0:	89 33 20 12 	srl  %o4, 0x12, %g4
 6003fb4:	80 a1 20 00 	cmp  %g4, 0
 6003fb8:	02 80 00 0e 	be  6003ff0 <setup_NFC_FTL+0x74>
 6003fbc:	97 2a e0 03 	sll  %o3, 3, %o3
 6003fc0:	03 03 40 00 	sethi  %hi(0xd000000), %g1
 6003fc4:	c4 00 60 14 	ld  [ %g1 + 0x14 ], %g2	! d000014 <NFC_FTL>
 6003fc8:	84 00 a8 00 	add  %g2, 0x800, %g2
 6003fcc:	82 10 20 00 	clr  %g1
 6003fd0:	86 08 60 7f 	and  %g1, 0x7f, %g3
 6003fd4:	87 28 e0 02 	sll  %g3, 2, %g3
 6003fd8:	c6 03 40 03 	ld  [ %o5 + %g3 ], %g3
 6003fdc:	c6 20 80 00 	st  %g3, [ %g2 ]
 6003fe0:	82 00 60 01 	inc  %g1
 6003fe4:	80 a0 40 04 	cmp  %g1, %g4
 6003fe8:	0a bf ff fa 	bcs  6003fd0 <setup_NFC_FTL+0x54>
 6003fec:	84 00 a0 04 	add  %g2, 4, %g2
 6003ff0:	03 03 40 00 	sethi  %hi(0xd000000), %g1
 6003ff4:	c2 00 60 10 	ld  [ %g1 + 0x10 ], %g1	! d000010 <nfcReg>
 6003ff8:	86 10 21 00 	mov  0x100, %g3
 6003ffc:	99 33 20 10 	srl  %o4, 0x10, %o4
 6004000:	84 03 23 ff 	add  %o4, 0x3ff, %g2
 6004004:	c6 20 60 2c 	st  %g3, [ %g1 + 0x2c ]
 6004008:	85 38 a0 0a 	sra  %g2, 0xa, %g2
 600400c:	85 28 a0 10 	sll  %g2, 0x10, %g2
 6004010:	9b 30 a0 10 	srl  %g2, 0x10, %o5
 6004014:	80 a3 60 00 	cmp  %o5, 0
 6004018:	c2 00 60 2c 	ld  [ %g1 + 0x2c ], %g1
 600401c:	02 80 00 29 	be  60040c0 <setup_NFC_FTL+0x144>
 6004020:	80 a3 24 00 	cmp  %o4, 0x400
 6004024:	38 80 00 02 	bgu,a   600402c <setup_NFC_FTL+0xb0>
 6004028:	96 10 24 00 	mov  0x400, %o3
 600402c:	07 03 40 00 	sethi  %hi(0xd000000), %g3
 6004030:	c8 00 e0 14 	ld  [ %g3 + 0x14 ], %g4	! d000014 <NFC_FTL>
 6004034:	99 30 a0 10 	srl  %g2, 0x10, %o4
 6004038:	87 28 60 02 	sll  %g1, 2, %g3
 600403c:	98 03 3f ff 	add  %o4, -1, %o4
 6004040:	95 2a e0 10 	sll  %o3, 0x10, %o2
 6004044:	90 03 00 01 	add  %o4, %g1, %o0
 6004048:	95 32 a0 06 	srl  %o2, 6, %o2
 600404c:	91 2a 20 02 	sll  %o0, 2, %o0
 6004050:	13 20 00 00 	sethi  %hi(0x80000000), %o1
 6004054:	86 01 00 03 	add  %g4, %g3, %g3
 6004058:	94 02 b0 00 	add  %o2, -4096, %o2
 600405c:	90 01 00 08 	add  %g4, %o0, %o0
 6004060:	92 12 62 00 	or  %o1, 0x200, %o1
 6004064:	84 10 20 00 	clr  %g2
 6004068:	10 80 00 0b 	b  6004094 <setup_NFC_FTL+0x118>
 600406c:	82 10 20 00 	clr  %g1
 6004070:	89 31 20 12 	srl  %g4, 0x12, %g4
 6004074:	88 01 00 0a 	add  %g4, %o2, %g4
 6004078:	88 11 22 00 	or  %g4, 0x200, %g4
 600407c:	c8 20 c0 00 	st  %g4, [ %g3 ]
 6004080:	82 00 60 01 	inc  %g1
 6004084:	80 a3 40 01 	cmp  %o5, %g1
 6004088:	08 80 00 0e 	bleu  60040c0 <setup_NFC_FTL+0x144>
 600408c:	86 00 e0 04 	add  %g3, 4, %g3
 6004090:	84 00 80 0b 	add  %g2, %o3, %g2
 6004094:	80 a0 40 0c 	cmp  %g1, %o4
 6004098:	12 bf ff f6 	bne  6004070 <setup_NFC_FTL+0xf4>
 600409c:	89 28 a0 10 	sll  %g2, 0x10, %g4
 60040a0:	89 31 20 12 	srl  %g4, 0x12, %g4
 60040a4:	88 02 80 04 	add  %o2, %g4, %g4
 60040a8:	88 11 00 09 	or  %g4, %o1, %g4
 60040ac:	c8 22 00 00 	st  %g4, [ %o0 ]
 60040b0:	82 00 60 01 	inc  %g1
 60040b4:	80 a3 40 01 	cmp  %o5, %g1
 60040b8:	18 bf ff f6 	bgu  6004090 <setup_NFC_FTL+0x114>
 60040bc:	86 00 e0 04 	add  %g3, 4, %g3
 60040c0:	81 c7 e0 08 	ret 
 60040c4:	81 e8 00 00 	restore 

060040c8 <get_NFC_FTL>:
 60040c8:	9d e3 bf a0 	save  %sp, -96, %sp
 60040cc:	05 02 00 01 	sethi  %hi(0x8000400), %g2
 60040d0:	03 03 40 00 	sethi  %hi(0xd000000), %g1
 60040d4:	84 10 a1 20 	or  %g2, 0x120, %g2
 60040d8:	c2 00 60 10 	ld  [ %g1 + 0x10 ], %g1
 60040dc:	c6 00 80 00 	ld  [ %g2 ], %g3
 60040e0:	86 10 e0 20 	or  %g3, 0x20, %g3
 60040e4:	c6 20 80 00 	st  %g3, [ %g2 ]
 60040e8:	84 10 21 00 	mov  0x100, %g2
 60040ec:	c4 20 60 2c 	st  %g2, [ %g1 + 0x2c ]
 60040f0:	97 2e 20 10 	sll  %i0, 0x10, %o3
 60040f4:	97 32 e0 10 	srl  %o3, 0x10, %o3
 60040f8:	96 02 e0 07 	add  %o3, 7, %o3
 60040fc:	97 3a e0 03 	sra  %o3, 3, %o3
 6004100:	85 2a e0 13 	sll  %o3, 0x13, %g2
 6004104:	97 2a e0 03 	sll  %o3, 3, %o3
 6004108:	85 30 a0 10 	srl  %g2, 0x10, %g2
 600410c:	98 00 a3 ff 	add  %g2, 0x3ff, %o4
 6004110:	c2 00 60 2c 	ld  [ %g1 + 0x2c ], %g1
 6004114:	99 3b 20 0a 	sra  %o4, 0xa, %o4
 6004118:	99 2b 20 10 	sll  %o4, 0x10, %o4
 600411c:	9b 33 20 10 	srl  %o4, 0x10, %o5
 6004120:	80 a3 60 00 	cmp  %o5, 0
 6004124:	02 80 00 29 	be  60041c8 <get_NFC_FTL+0x100>
 6004128:	80 a0 a4 00 	cmp  %g2, 0x400
 600412c:	38 80 00 02 	bgu,a   6004134 <get_NFC_FTL+0x6c>
 6004130:	96 10 24 00 	mov  0x400, %o3
 6004134:	05 03 40 00 	sethi  %hi(0xd000000), %g2
 6004138:	c4 00 a0 14 	ld  [ %g2 + 0x14 ], %g2	! d000014 <NFC_FTL>
 600413c:	87 28 60 02 	sll  %g1, 2, %g3
 6004140:	99 33 20 10 	srl  %o4, 0x10, %o4
 6004144:	86 00 80 03 	add  %g2, %g3, %g3
 6004148:	98 03 3f ff 	add  %o4, -1, %o4
 600414c:	95 2a e0 10 	sll  %o3, 0x10, %o2
 6004150:	90 03 00 01 	add  %o4, %g1, %o0
 6004154:	95 32 a0 06 	srl  %o2, 6, %o2
 6004158:	91 2a 20 02 	sll  %o0, 2, %o0
 600415c:	13 20 00 00 	sethi  %hi(0x80000000), %o1
 6004160:	90 00 80 08 	add  %g2, %o0, %o0
 6004164:	94 02 b0 00 	add  %o2, -4096, %o2
 6004168:	92 12 62 00 	or  %o1, 0x200, %o1
 600416c:	82 10 20 00 	clr  %g1
 6004170:	10 80 00 0b 	b  600419c <get_NFC_FTL+0xd4>
 6004174:	84 10 20 00 	clr  %g2
 6004178:	89 31 20 12 	srl  %g4, 0x12, %g4
 600417c:	88 01 00 0a 	add  %g4, %o2, %g4
 6004180:	88 11 22 00 	or  %g4, 0x200, %g4
 6004184:	c8 20 c0 00 	st  %g4, [ %g3 ]
 6004188:	82 00 60 01 	inc  %g1
 600418c:	80 a0 40 0d 	cmp  %g1, %o5
 6004190:	1a 80 00 0e 	bcc  60041c8 <get_NFC_FTL+0x100>
 6004194:	86 00 e0 04 	add  %g3, 4, %g3
 6004198:	84 00 80 0b 	add  %g2, %o3, %g2
 600419c:	80 a3 00 01 	cmp  %o4, %g1
 60041a0:	12 bf ff f6 	bne  6004178 <get_NFC_FTL+0xb0>
 60041a4:	89 28 a0 10 	sll  %g2, 0x10, %g4
 60041a8:	89 31 20 12 	srl  %g4, 0x12, %g4
 60041ac:	88 02 80 04 	add  %o2, %g4, %g4
 60041b0:	88 11 00 09 	or  %g4, %o1, %g4
 60041b4:	c8 22 00 00 	st  %g4, [ %o0 ]
 60041b8:	82 00 60 01 	inc  %g1
 60041bc:	80 a0 40 0d 	cmp  %g1, %o5
 60041c0:	0a bf ff f6 	bcs  6004198 <get_NFC_FTL+0xd0>
 60041c4:	86 00 e0 04 	add  %g3, 4, %g3
 60041c8:	81 c7 e0 08 	ret 
 60041cc:	81 e8 00 00 	restore 

060041d0 <NFC_Loop>:
 60041d0:	81 c3 e0 08 	retl 
 60041d4:	01 00 00 00 	nop 

060041d8 <GPIO_ERROR_FLG>:
 60041d8:	03 02 00 01 	sethi  %hi(0x8000400), %g1
 60041dc:	82 10 61 04 	or  %g1, 0x104, %g1	! 8000504 <text_end+0x1ff9044>
 60041e0:	05 00 00 10 	sethi  %hi(0x4000), %g2
 60041e4:	c4 20 40 00 	st  %g2, [ %g1 ]
 60041e8:	c0 20 40 00 	clr  [ %g1 ]
 60041ec:	81 c3 e0 08 	retl 
 60041f0:	01 00 00 00 	nop 

060041f4 <NFC_FTL_Verify>:
 60041f4:	9d e3 bf a0 	save  %sp, -96, %sp
 60041f8:	9b 2e 20 10 	sll  %i0, 0x10, %o5
 60041fc:	9b 33 60 12 	srl  %o5, 0x12, %o5
 6004200:	80 a3 60 00 	cmp  %o5, 0
 6004204:	02 80 00 19 	be  6004268 <NFC_FTL_Verify+0x74>
 6004208:	03 03 40 00 	sethi  %hi(0xd000000), %g1
 600420c:	c4 00 60 14 	ld  [ %g1 + 0x14 ], %g2	! d000014 <NFC_FTL>
 6004210:	19 01 80 1c 	sethi  %hi(0x6007000), %o4
 6004214:	c2 00 a8 00 	ld  [ %g2 + 0x800 ], %g1
 6004218:	c6 03 21 20 	ld  [ %o4 + 0x120 ], %g3
 600421c:	80 a0 c0 01 	cmp  %g3, %g1
 6004220:	12 80 00 14 	bne  6004270 <NFC_FTL_Verify+0x7c>
 6004224:	98 13 21 20 	or  %o4, 0x120, %o4
 6004228:	84 00 a8 04 	add  %g2, 0x804, %g2
 600422c:	10 80 00 07 	b  6004248 <NFC_FTL_Verify+0x54>
 6004230:	82 10 20 00 	clr  %g1
 6004234:	c6 00 80 00 	ld  [ %g2 ], %g3
 6004238:	c8 03 00 04 	ld  [ %o4 + %g4 ], %g4
 600423c:	80 a1 00 03 	cmp  %g4, %g3
 6004240:	12 80 00 0c 	bne  6004270 <NFC_FTL_Verify+0x7c>
 6004244:	84 00 a0 04 	add  %g2, 4, %g2
 6004248:	82 00 60 01 	inc  %g1
 600424c:	86 08 60 7f 	and  %g1, 0x7f, %g3
 6004250:	89 28 e0 02 	sll  %g3, 2, %g4
 6004254:	87 28 60 10 	sll  %g1, 0x10, %g3
 6004258:	87 30 e0 10 	srl  %g3, 0x10, %g3
 600425c:	80 a0 c0 0d 	cmp  %g3, %o5
 6004260:	0a bf ff f5 	bcs  6004234 <NFC_FTL_Verify+0x40>
 6004264:	01 00 00 00 	nop 
 6004268:	81 c7 e0 08 	ret 
 600426c:	91 e8 20 01 	restore  %g0, 1, %o0
 6004270:	03 02 00 01 	sethi  %hi(0x8000400), %g1
 6004274:	82 10 61 04 	or  %g1, 0x104, %g1	! 8000504 <text_end+0x1ff9044>
 6004278:	05 00 00 10 	sethi  %hi(0x4000), %g2
 600427c:	b0 10 20 00 	clr  %i0
 6004280:	c4 20 40 00 	st  %g2, [ %g1 ]
 6004284:	c0 20 40 00 	clr  [ %g1 ]
 6004288:	81 c7 e0 08 	ret 
 600428c:	81 e8 00 00 	restore 

06004290 <setup_NFC_LISTFTL>:
 6004290:	9d e3 bf a0 	save  %sp, -96, %sp
 6004294:	03 02 00 01 	sethi  %hi(0x8000400), %g1
 6004298:	82 10 61 20 	or  %g1, 0x120, %g1	! 8000520 <text_end+0x1ff9060>
 600429c:	c4 00 40 00 	ld  [ %g1 ], %g2
 60042a0:	84 10 a0 20 	or  %g2, 0x20, %g2
 60042a4:	c4 20 40 00 	st  %g2, [ %g1 ]
 60042a8:	b1 36 20 02 	srl  %i0, 2, %i0
 60042ac:	09 01 80 1c 	sethi  %hi(0x6007000), %g4
 60042b0:	80 a6 20 00 	cmp  %i0, 0
 60042b4:	02 80 00 1c 	be  6004324 <setup_NFC_LISTFTL+0x94>
 60042b8:	88 11 21 20 	or  %g4, 0x120, %g4
 60042bc:	03 03 40 00 	sethi  %hi(0xd000000), %g1
 60042c0:	da 00 60 14 	ld  [ %g1 + 0x14 ], %o5	! d000014 <NFC_FTL>
 60042c4:	84 03 68 00 	add  %o5, 0x800, %g2
 60042c8:	82 10 20 00 	clr  %g1
 60042cc:	86 08 60 7f 	and  %g1, 0x7f, %g3
 60042d0:	87 28 e0 02 	sll  %g3, 2, %g3
 60042d4:	c6 01 00 03 	ld  [ %g4 + %g3 ], %g3
 60042d8:	c6 20 80 00 	st  %g3, [ %g2 ]
 60042dc:	82 00 60 01 	inc  %g1
 60042e0:	80 a0 40 18 	cmp  %g1, %i0
 60042e4:	0a bf ff fa 	bcs  60042cc <setup_NFC_LISTFTL+0x3c>
 60042e8:	84 00 a0 04 	add  %g2, 4, %g2
 60042ec:	03 03 40 00 	sethi  %hi(0xd000000), %g1
 60042f0:	c2 00 60 10 	ld  [ %g1 + 0x10 ], %g1	! d000010 <nfcReg>
 60042f4:	84 10 21 00 	mov  0x100, %g2
 60042f8:	b0 06 3f ff 	add  %i0, -1, %i0
 60042fc:	b1 2e 20 0c 	sll  %i0, 0xc, %i0
 6004300:	c4 20 60 2c 	st  %g2, [ %g1 + 0x2c ]
 6004304:	05 20 00 00 	sethi  %hi(0x80000000), %g2
 6004308:	84 10 a2 00 	or  %g2, 0x200, %g2	! 80000200 <RAM_END+0x72ff9200>
 600430c:	b0 16 00 02 	or  %i0, %g2, %i0
 6004310:	c2 00 60 2c 	ld  [ %g1 + 0x2c ], %g1
 6004314:	83 28 60 02 	sll  %g1, 2, %g1
 6004318:	f0 23 40 01 	st  %i0, [ %o5 + %g1 ]
 600431c:	81 c7 e0 08 	ret 
 6004320:	81 e8 00 00 	restore 
 6004324:	03 03 40 00 	sethi  %hi(0xd000000), %g1
 6004328:	10 bf ff f1 	b  60042ec <setup_NFC_LISTFTL+0x5c>
 600432c:	da 00 60 14 	ld  [ %g1 + 0x14 ], %o5	! d000014 <NFC_FTL>

06004330 <NFC_ProgramFtl_T>:
 6004330:	9d e3 bf a0 	save  %sp, -96, %sp
 6004334:	91 2e 20 1a 	sll  %i0, 0x1a, %o0
 6004338:	7f ff ff 11 	call  6003f7c <setup_NFC_FTL>
 600433c:	91 32 20 10 	srl  %o0, 0x10, %o0
 6004340:	21 03 40 00 	sethi  %hi(0xd000000), %l0
 6004344:	c2 04 20 10 	ld  [ %l0 + 0x10 ], %g1	! d000010 <nfcReg>
 6004348:	c4 00 60 04 	ld  [ %g1 + 4 ], %g2
 600434c:	84 10 a0 1c 	or  %g2, 0x1c, %g2
 6004350:	90 10 00 19 	mov  %i1, %o0
 6004354:	c4 20 60 04 	st  %g2, [ %g1 + 4 ]
 6004358:	93 2e a0 10 	sll  %i2, 0x10, %o1
 600435c:	7f ff f9 3e 	call  6002854 <ONFI_ProgramPage>
 6004360:	93 32 60 10 	srl  %o1, 0x10, %o1
 6004364:	83 2e 20 06 	sll  %i0, 6, %g1
 6004368:	92 10 20 00 	clr  %o1
 600436c:	91 2e 20 02 	sll  %i0, 2, %o0
 6004370:	90 02 00 01 	add  %o0, %g1, %o0
 6004374:	90 22 00 18 	sub  %o0, %i0, %o0
 6004378:	91 2a 20 02 	sll  %o0, 2, %o0
 600437c:	90 22 00 18 	sub  %o0, %i0, %o0
 6004380:	7f ff fc ea 	call  6003728 <ONFI_dma_write>
 6004384:	91 2a 20 02 	sll  %o0, 2, %o0
 6004388:	7f ff f9 85 	call  600299c <ONFI_ProgramPage_end>
 600438c:	01 00 00 00 	nop 
 6004390:	c4 04 20 10 	ld  [ %l0 + 0x10 ], %g2
 6004394:	10 80 00 05 	b  60043a8 <NFC_ProgramFtl_T+0x78>
 6004398:	82 10 3f ff 	mov  -1, %g1
 600439c:	80 a0 e0 00 	cmp  %g3, 0
 60043a0:	02 80 00 1f 	be  600441c <NFC_ProgramFtl_T+0xec>
 60043a4:	82 00 7f ff 	add  %g1, -1, %g1
 60043a8:	c6 00 a0 10 	ld  [ %g2 + 0x10 ], %g3
 60043ac:	80 88 e0 20 	btst  0x20, %g3
 60043b0:	02 bf ff fb 	be  600439c <NFC_ProgramFtl_T+0x6c>
 60043b4:	87 28 60 10 	sll  %g1, 0x10, %g3
 60043b8:	10 80 00 05 	b  60043cc <NFC_ProgramFtl_T+0x9c>
 60043bc:	82 10 3f ff 	mov  -1, %g1
 60043c0:	80 a0 e0 00 	cmp  %g3, 0
 60043c4:	02 80 00 16 	be  600441c <NFC_ProgramFtl_T+0xec>
 60043c8:	82 00 7f ff 	add  %g1, -1, %g1
 60043cc:	c6 00 a0 10 	ld  [ %g2 + 0x10 ], %g3
 60043d0:	80 88 e0 04 	btst  4, %g3
 60043d4:	02 bf ff fb 	be  60043c0 <NFC_ProgramFtl_T+0x90>
 60043d8:	87 28 60 10 	sll  %g1, 0x10, %g3
 60043dc:	10 80 00 05 	b  60043f0 <NFC_ProgramFtl_T+0xc0>
 60043e0:	82 10 3f ff 	mov  -1, %g1
 60043e4:	80 a0 e0 00 	cmp  %g3, 0
 60043e8:	02 80 00 0d 	be  600441c <NFC_ProgramFtl_T+0xec>
 60043ec:	82 00 7f ff 	add  %g1, -1, %g1
 60043f0:	c6 00 a0 8c 	ld  [ %g2 + 0x8c ], %g3
 60043f4:	80 a0 e2 00 	cmp  %g3, 0x200
 60043f8:	12 bf ff fb 	bne  60043e4 <NFC_ProgramFtl_T+0xb4>
 60043fc:	87 28 60 10 	sll  %g1, 0x10, %g3
 6004400:	c2 00 a0 10 	ld  [ %g2 + 0x10 ], %g1
 6004404:	c6 00 a0 10 	ld  [ %g2 + 0x10 ], %g3
 6004408:	82 10 c0 01 	or  %g3, %g1, %g1
 600440c:	c2 20 a0 10 	st  %g1, [ %g2 + 0x10 ]
 6004410:	c2 00 a0 04 	ld  [ %g2 + 4 ], %g1
 6004414:	82 08 7f e3 	and  %g1, -29, %g1
 6004418:	c2 20 a0 04 	st  %g1, [ %g2 + 4 ]
 600441c:	81 c7 e0 08 	ret 
 6004420:	81 e8 00 00 	restore 

06004424 <NFC_ReadFtl_T>:
 6004424:	9d e3 bf a0 	save  %sp, -96, %sp
 6004428:	a3 2e 20 0a 	sll  %i0, 0xa, %l1
 600442c:	a1 2c 60 10 	sll  %l1, 0x10, %l0
 6004430:	a1 34 20 10 	srl  %l0, 0x10, %l0
 6004434:	7f ff ff 25 	call  60040c8 <get_NFC_FTL>
 6004438:	90 10 00 10 	mov  %l0, %o0
 600443c:	a3 34 60 02 	srl  %l1, 2, %l1
 6004440:	80 a4 60 00 	cmp  %l1, 0
 6004444:	02 80 00 0e 	be  600447c <NFC_ReadFtl_T+0x58>
 6004448:	90 10 00 19 	mov  %i1, %o0
 600444c:	03 03 40 00 	sethi  %hi(0xd000000), %g1
 6004450:	84 10 20 00 	clr  %g2
 6004454:	c8 00 60 14 	ld  [ %g1 + 0x14 ], %g4
 6004458:	86 10 3f ff 	mov  -1, %g3
 600445c:	82 10 20 00 	clr  %g1
 6004460:	84 00 a2 00 	add  %g2, 0x200, %g2
 6004464:	85 28 a0 02 	sll  %g2, 2, %g2
 6004468:	82 00 60 01 	inc  %g1
 600446c:	80 a0 40 11 	cmp  %g1, %l1
 6004470:	c6 21 00 02 	st  %g3, [ %g4 + %g2 ]
 6004474:	12 bf ff fb 	bne  6004460 <NFC_ReadFtl_T+0x3c>
 6004478:	84 10 00 01 	mov  %g1, %g2
 600447c:	23 03 40 00 	sethi  %hi(0xd000000), %l1
 6004480:	c2 04 60 10 	ld  [ %l1 + 0x10 ], %g1	! d000010 <nfcReg>
 6004484:	c4 00 60 04 	ld  [ %g1 + 4 ], %g2
 6004488:	84 10 ad 00 	or  %g2, 0xd00, %g2
 600448c:	93 2e a0 10 	sll  %i2, 0x10, %o1
 6004490:	c4 20 60 04 	st  %g2, [ %g1 + 4 ]
 6004494:	7f ff f7 51 	call  60021d8 <ONFI_ReadPage>
 6004498:	93 32 60 10 	srl  %o1, 0x10, %o1
 600449c:	85 2e 20 02 	sll  %i0, 2, %g2
 60044a0:	83 2e 20 06 	sll  %i0, 6, %g1
 60044a4:	82 00 80 01 	add  %g2, %g1, %g1
 60044a8:	82 20 40 18 	sub  %g1, %i0, %g1
 60044ac:	83 28 60 02 	sll  %g1, 2, %g1
 60044b0:	92 10 20 00 	clr  %o1
 60044b4:	b0 20 40 18 	sub  %g1, %i0, %i0
 60044b8:	94 10 20 01 	mov  1, %o2
 60044bc:	7f ff fc 13 	call  6003508 <ONFI_dma_read>
 60044c0:	91 2e 20 02 	sll  %i0, 2, %o0
 60044c4:	c4 04 60 10 	ld  [ %l1 + 0x10 ], %g2
 60044c8:	c2 00 a0 10 	ld  [ %g2 + 0x10 ], %g1
 60044cc:	80 88 60 20 	btst  0x20, %g1
 60044d0:	02 bf ff fe 	be  60044c8 <NFC_ReadFtl_T+0xa4>
 60044d4:	01 00 00 00 	nop 
 60044d8:	c2 00 a0 10 	ld  [ %g2 + 0x10 ], %g1
 60044dc:	c6 00 a0 10 	ld  [ %g2 + 0x10 ], %g3
 60044e0:	82 10 c0 01 	or  %g3, %g1, %g1
 60044e4:	c2 20 a0 10 	st  %g1, [ %g2 + 0x10 ]
 60044e8:	7f ff ff 43 	call  60041f4 <NFC_FTL_Verify>
 60044ec:	90 10 00 10 	mov  %l0, %o0
 60044f0:	c2 04 60 10 	ld  [ %l1 + 0x10 ], %g1
 60044f4:	c4 00 60 04 	ld  [ %g1 + 4 ], %g2
 60044f8:	84 08 b2 ff 	and  %g2, -3329, %g2
 60044fc:	90 0a 20 ff 	and  %o0, 0xff, %o0
 6004500:	c4 20 60 04 	st  %g2, [ %g1 + 4 ]
 6004504:	b1 2a 20 10 	sll  %o0, 0x10, %i0
 6004508:	81 c7 e0 08 	ret 
 600450c:	81 e8 00 00 	restore 

06004510 <NFC_Copy_Back_Ftl>:
 6004510:	9d e3 bf a0 	save  %sp, -96, %sp
 6004514:	83 2e a0 10 	sll  %i2, 0x10, %g1
 6004518:	80 a0 60 00 	cmp  %g1, 0
 600451c:	02 80 00 5b 	be  6004688 <NFC_Copy_Back_Ftl+0x178>
 6004520:	b5 2e a0 10 	sll  %i2, 0x10, %i2
 6004524:	21 03 40 00 	sethi  %hi(0xd000000), %l0
 6004528:	a9 36 a0 10 	srl  %i2, 0x10, %l4
 600452c:	a0 14 20 10 	or  %l0, 0x10, %l0
 6004530:	a4 10 20 00 	clr  %l2
 6004534:	a6 10 20 00 	clr  %l3
 6004538:	7f ff fe e4 	call  60040c8 <get_NFC_FTL>
 600453c:	90 10 24 00 	mov  0x400, %o0
 6004540:	c2 04 00 00 	ld  [ %l0 ], %g1
 6004544:	c4 00 60 04 	ld  [ %g1 + 4 ], %g2
 6004548:	84 10 ad 00 	or  %g2, 0xd00, %g2
 600454c:	90 10 00 18 	mov  %i0, %o0
 6004550:	c4 20 60 04 	st  %g2, [ %g1 + 4 ]
 6004554:	a3 2c a0 0f 	sll  %l2, 0xf, %l1
 6004558:	a3 34 60 10 	srl  %l1, 0x10, %l1
 600455c:	7f ff f7 1f 	call  60021d8 <ONFI_ReadPage>
 6004560:	92 10 00 11 	mov  %l1, %o1
 6004564:	90 10 24 2c 	mov  0x42c, %o0
 6004568:	92 10 20 00 	clr  %o1
 600456c:	7f ff fb e7 	call  6003508 <ONFI_dma_read>
 6004570:	94 10 20 01 	mov  1, %o2
 6004574:	c2 04 00 00 	ld  [ %l0 ], %g1
 6004578:	c4 00 60 10 	ld  [ %g1 + 0x10 ], %g2
 600457c:	80 88 a0 20 	btst  0x20, %g2
 6004580:	02 bf ff fe 	be  6004578 <NFC_Copy_Back_Ftl+0x68>
 6004584:	01 00 00 00 	nop 
 6004588:	c4 00 60 10 	ld  [ %g1 + 0x10 ], %g2
 600458c:	c6 00 60 10 	ld  [ %g1 + 0x10 ], %g3
 6004590:	84 10 c0 02 	or  %g3, %g2, %g2
 6004594:	c4 20 60 10 	st  %g2, [ %g1 + 0x10 ]
 6004598:	90 10 24 00 	mov  0x400, %o0
 600459c:	c4 00 60 04 	ld  [ %g1 + 4 ], %g2
 60045a0:	84 08 b2 ff 	and  %g2, -3329, %g2
 60045a4:	c4 20 60 04 	st  %g2, [ %g1 + 4 ]
 60045a8:	7f ff fe c8 	call  60040c8 <get_NFC_FTL>
 60045ac:	01 00 00 00 	nop 
 60045b0:	c2 04 00 00 	ld  [ %l0 ], %g1
 60045b4:	c4 00 60 04 	ld  [ %g1 + 4 ], %g2
 60045b8:	84 10 a0 1c 	or  %g2, 0x1c, %g2
 60045bc:	92 10 00 11 	mov  %l1, %o1
 60045c0:	c4 20 60 04 	st  %g2, [ %g1 + 4 ]
 60045c4:	7f ff f8 a4 	call  6002854 <ONFI_ProgramPage>
 60045c8:	90 10 00 19 	mov  %i1, %o0
 60045cc:	90 10 24 2c 	mov  0x42c, %o0
 60045d0:	7f ff fc 56 	call  6003728 <ONFI_dma_write>
 60045d4:	92 10 20 00 	clr  %o1
 60045d8:	7f ff f8 f1 	call  600299c <ONFI_ProgramPage_end>
 60045dc:	01 00 00 00 	nop 
 60045e0:	c4 04 00 00 	ld  [ %l0 ], %g2
 60045e4:	10 80 00 05 	b  60045f8 <NFC_Copy_Back_Ftl+0xe8>
 60045e8:	82 10 3f ff 	mov  -1, %g1
 60045ec:	80 a0 e0 00 	cmp  %g3, 0
 60045f0:	02 80 00 26 	be  6004688 <NFC_Copy_Back_Ftl+0x178>
 60045f4:	82 00 7f ff 	add  %g1, -1, %g1
 60045f8:	c6 00 a0 10 	ld  [ %g2 + 0x10 ], %g3
 60045fc:	80 88 e0 20 	btst  0x20, %g3
 6004600:	02 bf ff fb 	be  60045ec <NFC_Copy_Back_Ftl+0xdc>
 6004604:	87 28 60 10 	sll  %g1, 0x10, %g3
 6004608:	10 80 00 05 	b  600461c <NFC_Copy_Back_Ftl+0x10c>
 600460c:	82 10 3f ff 	mov  -1, %g1
 6004610:	80 a0 e0 00 	cmp  %g3, 0
 6004614:	02 80 00 1d 	be  6004688 <NFC_Copy_Back_Ftl+0x178>
 6004618:	82 00 7f ff 	add  %g1, -1, %g1
 600461c:	c6 00 a0 10 	ld  [ %g2 + 0x10 ], %g3
 6004620:	80 88 e0 04 	btst  4, %g3
 6004624:	02 bf ff fb 	be  6004610 <NFC_Copy_Back_Ftl+0x100>
 6004628:	87 28 60 10 	sll  %g1, 0x10, %g3
 600462c:	10 80 00 05 	b  6004640 <NFC_Copy_Back_Ftl+0x130>
 6004630:	82 10 3f ff 	mov  -1, %g1
 6004634:	80 a0 e0 00 	cmp  %g3, 0
 6004638:	02 80 00 14 	be  6004688 <NFC_Copy_Back_Ftl+0x178>
 600463c:	82 00 7f ff 	add  %g1, -1, %g1
 6004640:	c6 00 a0 8c 	ld  [ %g2 + 0x8c ], %g3
 6004644:	80 a0 e2 00 	cmp  %g3, 0x200
 6004648:	12 bf ff fb 	bne  6004634 <NFC_Copy_Back_Ftl+0x124>
 600464c:	87 28 60 10 	sll  %g1, 0x10, %g3
 6004650:	c2 00 a0 10 	ld  [ %g2 + 0x10 ], %g1
 6004654:	c6 00 a0 10 	ld  [ %g2 + 0x10 ], %g3
 6004658:	82 10 c0 01 	or  %g3, %g1, %g1
 600465c:	c2 20 a0 10 	st  %g1, [ %g2 + 0x10 ]
 6004660:	a6 04 e0 01 	inc  %l3
 6004664:	a4 04 a4 2c 	add  %l2, 0x42c, %l2
 6004668:	c2 00 a0 04 	ld  [ %g2 + 4 ], %g1
 600466c:	82 08 7f e3 	and  %g1, -29, %g1
 6004670:	c2 20 a0 04 	st  %g1, [ %g2 + 4 ]
 6004674:	83 2c e0 10 	sll  %l3, 0x10, %g1
 6004678:	83 30 60 10 	srl  %g1, 0x10, %g1
 600467c:	80 a5 00 01 	cmp  %l4, %g1
 6004680:	18 bf ff ae 	bgu  6004538 <NFC_Copy_Back_Ftl+0x28>
 6004684:	01 00 00 00 	nop 
 6004688:	81 c7 e0 08 	ret 
 600468c:	81 e8 00 00 	restore 

06004690 <NFC_IRQ_ENABLE>:
 6004690:	03 03 40 00 	sethi  %hi(0xd000000), %g1
 6004694:	c2 00 60 10 	ld  [ %g1 + 0x10 ], %g1	! d000010 <nfcReg>
 6004698:	c4 00 60 10 	ld  [ %g1 + 0x10 ], %g2
 600469c:	c6 00 60 10 	ld  [ %g1 + 0x10 ], %g3
 60046a0:	84 10 c0 02 	or  %g3, %g2, %g2
 60046a4:	c4 20 60 10 	st  %g2, [ %g1 + 0x10 ]
 60046a8:	84 10 20 0a 	mov  0xa, %g2
 60046ac:	c4 20 60 14 	st  %g2, [ %g1 + 0x14 ]
 60046b0:	81 c3 e0 08 	retl 
 60046b4:	01 00 00 00 	nop 

060046b8 <NFC_IRQ_DISABLE>:
 60046b8:	03 03 40 00 	sethi  %hi(0xd000000), %g1
 60046bc:	c2 00 60 10 	ld  [ %g1 + 0x10 ], %g1	! d000010 <nfcReg>
 60046c0:	c0 20 60 14 	clr  [ %g1 + 0x14 ]
 60046c4:	c4 00 60 10 	ld  [ %g1 + 0x10 ], %g2
 60046c8:	c6 00 60 10 	ld  [ %g1 + 0x10 ], %g3
 60046cc:	84 10 c0 02 	or  %g3, %g2, %g2
 60046d0:	c4 20 60 10 	st  %g2, [ %g1 + 0x10 ]
 60046d4:	81 c3 e0 08 	retl 
 60046d8:	01 00 00 00 	nop 

060046dc <Nfc_getFlashInfo_8>:
 60046dc:	9d e3 bf 98 	save  %sp, -104, %sp
 60046e0:	7f ff f3 43 	call  60013ec <ONFI_ReadID>
 60046e4:	90 10 20 00 	clr  %o0
 60046e8:	92 10 20 05 	mov  5, %o1
 60046ec:	a0 07 bf f8 	add  %fp, -8, %l0
 60046f0:	7f ff fa dc 	call  6003260 <ONFI_receive8>
 60046f4:	90 10 00 10 	mov  %l0, %o0
 60046f8:	90 10 20 20 	mov  0x20, %o0
 60046fc:	c0 2f bf fc 	clrb  [ %fp + -4 ]
 6004700:	c0 2f bf fb 	clrb  [ %fp + -5 ]
 6004704:	c0 2f bf fa 	clrb  [ %fp + -6 ]
 6004708:	c0 2f bf f9 	clrb  [ %fp + -7 ]
 600470c:	7f ff f3 38 	call  60013ec <ONFI_ReadID>
 6004710:	c0 2f bf f8 	clrb  [ %fp + -8 ]
 6004714:	90 10 00 10 	mov  %l0, %o0
 6004718:	7f ff fa d2 	call  6003260 <ONFI_receive8>
 600471c:	92 10 20 04 	mov  4, %o1
 6004720:	81 c7 e0 08 	ret 
 6004724:	81 e8 00 00 	restore 

06004728 <Nfc_getFlashInfo_16>:
 6004728:	9d e3 bf 80 	save  %sp, -128, %sp
 600472c:	7f ff f3 30 	call  60013ec <ONFI_ReadID>
 6004730:	90 10 20 20 	mov  0x20, %o0
 6004734:	92 10 20 04 	mov  4, %o1
 6004738:	7f ff fb 21 	call  60033bc <ONFI_receive16>
 600473c:	90 07 bf f6 	add  %fp, -10, %o0
 6004740:	7f ff f3 53 	call  600148c <ONFI_ReadParameterPage>
 6004744:	90 10 20 00 	clr  %o0
 6004748:	90 07 bf e6 	add  %fp, -26, %o0
 600474c:	7f ff fb 1c 	call  60033bc <ONFI_receive16>
 6004750:	92 10 20 04 	mov  4, %o1
 6004754:	81 c7 e0 08 	ret 
 6004758:	81 e8 00 00 	restore 

0600475c <addrMap>:
 600475c:	82 0a 2f ff 	and  %o0, 0xfff, %g1
 6004760:	91 32 20 0c 	srl  %o0, 0xc, %o0
 6004764:	80 8a 20 01 	btst  1, %o0
 6004768:	12 80 00 0a 	bne  6004790 <addrMap+0x34>
 600476c:	83 30 60 04 	srl  %g1, 4, %g1
 6004770:	80 88 60 01 	btst  1, %g1
 6004774:	02 80 00 14 	be  60047c4 <addrMap+0x68>
 6004778:	84 02 20 01 	add  %o0, 1, %g2
 600477c:	83 30 60 01 	srl  %g1, 1, %g1
 6004780:	85 28 a0 08 	sll  %g2, 8, %g2
 6004784:	90 00 80 01 	add  %g2, %g1, %o0
 6004788:	81 c3 e0 08 	retl 
 600478c:	91 2a 20 04 	sll  %o0, 4, %o0
 6004790:	80 88 60 01 	btst  1, %g1
 6004794:	12 80 00 08 	bne  60047b4 <addrMap+0x58>
 6004798:	84 02 3f ff 	add  %o0, -1, %g2
 600479c:	83 30 60 01 	srl  %g1, 1, %g1
 60047a0:	82 00 60 80 	add  %g1, 0x80, %g1
 60047a4:	85 28 a0 08 	sll  %g2, 8, %g2
 60047a8:	90 00 80 01 	add  %g2, %g1, %o0
 60047ac:	81 c3 e0 08 	retl 
 60047b0:	91 2a 20 04 	sll  %o0, 4, %o0
 60047b4:	83 30 60 01 	srl  %g1, 1, %g1
 60047b8:	84 10 00 08 	mov  %o0, %g2
 60047bc:	10 bf ff fa 	b  60047a4 <addrMap+0x48>
 60047c0:	82 00 60 80 	add  %g1, 0x80, %g1
 60047c4:	10 bf ff ee 	b  600477c <addrMap+0x20>
 60047c8:	84 10 00 08 	mov  %o0, %g2

060047cc <Disk_Read>:
 60047cc:	9d e3 bf a0 	save  %sp, -96, %sp
 60047d0:	03 03 40 00 	sethi  %hi(0xd000000), %g1
 60047d4:	c2 00 60 10 	ld  [ %g1 + 0x10 ], %g1	! d000010 <nfcReg>
 60047d8:	85 2e 60 0a 	sll  %i1, 0xa, %g2
 60047dc:	85 30 a0 03 	srl  %g2, 3, %g2
 60047e0:	84 00 bf ff 	add  %g2, -1, %g2
 60047e4:	c4 20 60 1c 	st  %g2, [ %g1 + 0x1c ]
 60047e8:	05 00 00 09 	sethi  %hi(0x2400), %g2
 60047ec:	84 10 a1 00 	or  %g2, 0x100, %g2	! 2500 <data_start+0x2500>
 60047f0:	c6 00 60 04 	ld  [ %g1 + 4 ], %g3
 60047f4:	84 10 c0 02 	or  %g3, %g2, %g2
 60047f8:	c4 20 60 04 	st  %g2, [ %g1 + 4 ]
 60047fc:	7f ff ff d8 	call  600475c <addrMap>
 6004800:	90 10 00 18 	mov  %i0, %o0
 6004804:	25 03 40 00 	sethi  %hi(0xd000000), %l2
 6004808:	a4 14 a0 3c 	or  %l2, 0x3c, %l2	! d00003c <nfcTrsState>
 600480c:	c2 0c a0 0a 	ldub  [ %l2 + 0xa ], %g1
 6004810:	80 a0 60 55 	cmp  %g1, 0x55
 6004814:	22 80 00 46 	be,a   600492c <Disk_Read+0x160>
 6004818:	91 32 20 04 	srl  %o0, 4, %o0
 600481c:	80 a6 60 00 	cmp  %i1, 0
 6004820:	02 80 00 41 	be  6004924 <Disk_Read+0x158>
 6004824:	a0 10 00 18 	mov  %i0, %l0
 6004828:	b0 0e 20 0f 	and  %i0, 0xf, %i0
 600482c:	a7 2e 20 02 	sll  %i0, 2, %l3
 6004830:	83 2e 20 06 	sll  %i0, 6, %g1
 6004834:	a6 04 c0 01 	add  %l3, %g1, %l3
 6004838:	a6 24 c0 18 	sub  %l3, %i0, %l3
 600483c:	a7 2c e0 02 	sll  %l3, 2, %l3
 6004840:	a2 10 00 18 	mov  %i0, %l1
 6004844:	b0 24 c0 18 	sub  %l3, %i0, %i0
 6004848:	a7 2e 20 11 	sll  %i0, 0x11, %l3
 600484c:	10 80 00 13 	b  6004898 <Disk_Read+0xcc>
 6004850:	a7 34 e0 10 	srl  %l3, 0x10, %l3
 6004854:	7f ff f7 6d 	call  6002608 <ONFI_ReadCacheLast>
 6004858:	01 00 00 00 	nop 
 600485c:	80 a4 60 00 	cmp  %l1, 0
 6004860:	12 80 00 22 	bne  60048e8 <Disk_Read+0x11c>
 6004864:	85 2d 20 02 	sll  %l4, 2, %g2
 6004868:	83 2d 20 06 	sll  %l4, 6, %g1
 600486c:	82 00 80 01 	add  %g2, %g1, %g1
 6004870:	82 20 40 14 	sub  %g1, %l4, %g1
 6004874:	83 28 60 02 	sll  %g1, 2, %g1
 6004878:	92 10 20 00 	clr  %o1
 600487c:	a8 20 40 14 	sub  %g1, %l4, %l4
 6004880:	94 10 20 01 	mov  1, %o2
 6004884:	7f ff fb 21 	call  6003508 <ONFI_dma_read>
 6004888:	91 2d 20 02 	sll  %l4, 2, %o0
 600488c:	80 a6 60 00 	cmp  %i1, 0
 6004890:	02 80 00 25 	be  6004924 <Disk_Read+0x158>
 6004894:	01 00 00 00 	nop 
 6004898:	80 a6 60 10 	cmp  %i1, 0x10
 600489c:	08 80 00 03 	bleu  60048a8 <Disk_Read+0xdc>
 60048a0:	a8 10 00 19 	mov  %i1, %l4
 60048a4:	a8 10 20 10 	mov  0x10, %l4
 60048a8:	a0 04 00 14 	add  %l0, %l4, %l0
 60048ac:	7f ff ff ac 	call  600475c <addrMap>
 60048b0:	90 10 00 10 	mov  %l0, %o0
 60048b4:	b2 26 40 14 	sub  %i1, %l4, %i1
 60048b8:	80 a6 60 00 	cmp  %i1, 0
 60048bc:	32 80 00 06 	bne,a   60048d4 <Disk_Read+0x108>
 60048c0:	91 32 20 04 	srl  %o0, 4, %o0
 60048c4:	c2 0c a0 09 	ldub  [ %l2 + 9 ], %g1
 60048c8:	80 a0 60 66 	cmp  %g1, 0x66
 60048cc:	12 bf ff e2 	bne  6004854 <Disk_Read+0x88>
 60048d0:	91 32 20 04 	srl  %o0, 4, %o0
 60048d4:	7f ff f6 e1 	call  6002458 <ONFI_ReadPageCacheRandom>
 60048d8:	92 0c 20 0f 	and  %l0, 0xf, %o1
 60048dc:	80 a4 60 00 	cmp  %l1, 0
 60048e0:	02 bf ff e2 	be  6004868 <Disk_Read+0x9c>
 60048e4:	85 2d 20 02 	sll  %l4, 2, %g2
 60048e8:	7f ff f5 0a 	call  6001d10 <ONFI_ChangeReadColumn>
 60048ec:	90 10 00 13 	mov  %l3, %o0
 60048f0:	85 2d 20 02 	sll  %l4, 2, %g2
 60048f4:	83 2d 20 06 	sll  %l4, 6, %g1
 60048f8:	82 00 80 01 	add  %g2, %g1, %g1
 60048fc:	82 20 40 14 	sub  %g1, %l4, %g1
 6004900:	83 28 60 02 	sll  %g1, 2, %g1
 6004904:	92 10 20 00 	clr  %o1
 6004908:	a8 20 40 14 	sub  %g1, %l4, %l4
 600490c:	94 10 20 01 	mov  1, %o2
 6004910:	7f ff fa fe 	call  6003508 <ONFI_dma_read>
 6004914:	91 2d 20 02 	sll  %l4, 2, %o0
 6004918:	80 a6 60 00 	cmp  %i1, 0
 600491c:	12 bf ff e0 	bne  600489c <Disk_Read+0xd0>
 6004920:	80 a6 60 10 	cmp  %i1, 0x10
 6004924:	81 c7 e0 08 	ret 
 6004928:	81 e8 00 00 	restore 
 600492c:	7f ff f6 2b 	call  60021d8 <ONFI_ReadPage>
 6004930:	92 10 20 00 	clr  %o1
 6004934:	10 bf ff bb 	b  6004820 <Disk_Read+0x54>
 6004938:	80 a6 60 00 	cmp  %i1, 0

0600493c <Disk_Program>:
 600493c:	9d e3 bf a0 	save  %sp, -96, %sp
 6004940:	03 03 40 00 	sethi  %hi(0xd000000), %g1
 6004944:	c2 00 60 10 	ld  [ %g1 + 0x10 ], %g1	! d000010 <nfcReg>
 6004948:	85 2e 60 0a 	sll  %i1, 0xa, %g2
 600494c:	85 30 a0 03 	srl  %g2, 3, %g2
 6004950:	84 00 bf ff 	add  %g2, -1, %g2
 6004954:	c4 20 60 18 	st  %g2, [ %g1 + 0x18 ]
 6004958:	c4 20 60 24 	st  %g2, [ %g1 + 0x24 ]
 600495c:	80 a6 60 00 	cmp  %i1, 0
 6004960:	c4 00 60 04 	ld  [ %g1 + 4 ], %g2
 6004964:	84 10 a0 19 	or  %g2, 0x19, %g2
 6004968:	c4 20 60 04 	st  %g2, [ %g1 + 4 ]
 600496c:	02 80 00 2a 	be  6004a14 <Disk_Program+0xd8>
 6004970:	23 03 40 00 	sethi  %hi(0xd000000), %l1
 6004974:	27 00 00 04 	sethi  %hi(0x1000), %l3
 6004978:	a2 14 60 3c 	or  %l1, 0x3c, %l1
 600497c:	a4 10 00 11 	mov  %l1, %l2
 6004980:	80 a6 60 10 	cmp  %i1, 0x10
 6004984:	08 80 00 03 	bleu  6004990 <Disk_Program+0x54>
 6004988:	a0 10 00 19 	mov  %i1, %l0
 600498c:	a0 10 20 10 	mov  0x10, %l0
 6004990:	7f ff ff 73 	call  600475c <addrMap>
 6004994:	90 10 00 18 	mov  %i0, %o0
 6004998:	80 8a 2f ff 	btst  0xfff, %o0
 600499c:	12 80 00 05 	bne  60049b0 <Disk_Program+0x74>
 60049a0:	a9 32 20 04 	srl  %o0, 4, %l4
 60049a4:	80 8a 00 13 	btst  %o0, %l3
 60049a8:	02 80 00 2f 	be  6004a64 <Disk_Program+0x128>
 60049ac:	01 00 00 00 	nop 
 60049b0:	90 10 00 14 	mov  %l4, %o0
 60049b4:	7f ff f7 a8 	call  6002854 <ONFI_ProgramPage>
 60049b8:	92 10 20 00 	clr  %o1
 60049bc:	83 2c 20 06 	sll  %l0, 6, %g1
 60049c0:	92 10 20 00 	clr  %o1
 60049c4:	91 2c 20 02 	sll  %l0, 2, %o0
 60049c8:	90 02 00 01 	add  %o0, %g1, %o0
 60049cc:	90 22 00 10 	sub  %o0, %l0, %o0
 60049d0:	91 2a 20 02 	sll  %o0, 2, %o0
 60049d4:	90 22 00 10 	sub  %o0, %l0, %o0
 60049d8:	7f ff fb 54 	call  6003728 <ONFI_dma_write>
 60049dc:	91 2a 20 02 	sll  %o0, 2, %o0
 60049e0:	b2 a6 40 10 	subcc  %i1, %l0, %i1
 60049e4:	12 80 00 0e 	bne  6004a1c <Disk_Program+0xe0>
 60049e8:	01 00 00 00 	nop 
 60049ec:	c2 0c 60 09 	ldub  [ %l1 + 9 ], %g1
 60049f0:	80 a0 60 66 	cmp  %g1, 0x66
 60049f4:	02 80 00 0a 	be  6004a1c <Disk_Program+0xe0>
 60049f8:	01 00 00 00 	nop 
 60049fc:	7f ff f7 e8 	call  600299c <ONFI_ProgramPage_end>
 6004a00:	01 00 00 00 	nop 
 6004a04:	c2 0c a0 08 	ldub  [ %l2 + 8 ], %g1
 6004a08:	80 a0 00 01 	cmp  %g0, %g1
 6004a0c:	82 60 3f ff 	subx  %g0, -1, %g1
 6004a10:	c2 2c a0 08 	stb  %g1, [ %l2 + 8 ]
 6004a14:	81 c7 e0 08 	ret 
 6004a18:	81 e8 00 00 	restore 
 6004a1c:	c2 0c 60 08 	ldub  [ %l1 + 8 ], %g1
 6004a20:	80 a0 60 01 	cmp  %g1, 1
 6004a24:	02 80 00 0d 	be  6004a58 <Disk_Program+0x11c>
 6004a28:	01 00 00 00 	nop 
 6004a2c:	7f ff f8 40 	call  6002b2c <ONFI_ProgramPageMultiPlane_end>
 6004a30:	01 00 00 00 	nop 
 6004a34:	c2 0c 60 08 	ldub  [ %l1 + 8 ], %g1
 6004a38:	80 a0 00 01 	cmp  %g0, %g1
 6004a3c:	82 60 3f ff 	subx  %g0, -1, %g1
 6004a40:	80 a6 60 00 	cmp  %i1, 0
 6004a44:	c2 2c 60 08 	stb  %g1, [ %l1 + 8 ]
 6004a48:	02 bf ff f3 	be  6004a14 <Disk_Program+0xd8>
 6004a4c:	b0 06 00 10 	add  %i0, %l0, %i0
 6004a50:	10 bf ff cd 	b  6004984 <Disk_Program+0x48>
 6004a54:	80 a6 60 10 	cmp  %i1, 0x10
 6004a58:	7f ff f8 03 	call  6002a64 <ONFI_ProgramPageCache_end>
 6004a5c:	01 00 00 00 	nop 
 6004a60:	30 bf ff f5 	b,a   6004a34 <Disk_Program+0xf8>
 6004a64:	7f ff f8 b0 	call  6002d24 <ONFI_EraseBlockMultiPlane>
 6004a68:	90 10 00 14 	mov  %l4, %o0
 6004a6c:	7f ff f8 62 	call  6002bf4 <ONFI_EraseBlock>
 6004a70:	90 05 21 00 	add  %l4, 0x100, %o0
 6004a74:	10 bf ff d0 	b  60049b4 <Disk_Program+0x78>
 6004a78:	90 10 00 14 	mov  %l4, %o0

06004a7c <addrMapMultiLun>:
 6004a7c:	82 0a 2f ff 	and  %o0, 0xfff, %g1
 6004a80:	91 32 20 0c 	srl  %o0, 0xc, %o0
 6004a84:	80 8a 20 01 	btst  1, %o0
 6004a88:	12 80 00 0a 	bne  6004ab0 <addrMapMultiLun+0x34>
 6004a8c:	83 30 60 04 	srl  %g1, 4, %g1
 6004a90:	80 88 60 01 	btst  1, %g1
 6004a94:	02 80 00 11 	be  6004ad8 <addrMapMultiLun+0x5c>
 6004a98:	84 02 28 00 	add  %o0, 0x800, %g2
 6004a9c:	83 30 60 01 	srl  %g1, 1, %g1
 6004aa0:	85 28 a0 08 	sll  %g2, 8, %g2
 6004aa4:	90 00 80 01 	add  %g2, %g1, %o0
 6004aa8:	81 c3 e0 08 	retl 
 6004aac:	91 2a 20 04 	sll  %o0, 4, %o0
 6004ab0:	80 88 60 01 	btst  1, %g1
 6004ab4:	12 80 00 03 	bne  6004ac0 <addrMapMultiLun+0x44>
 6004ab8:	84 02 27 ff 	add  %o0, 0x7ff, %g2
 6004abc:	84 02 3f ff 	add  %o0, -1, %g2
 6004ac0:	85 28 a0 08 	sll  %g2, 8, %g2
 6004ac4:	83 30 60 01 	srl  %g1, 1, %g1
 6004ac8:	82 00 60 80 	add  %g1, 0x80, %g1
 6004acc:	90 00 80 01 	add  %g2, %g1, %o0
 6004ad0:	81 c3 e0 08 	retl 
 6004ad4:	91 2a 20 04 	sll  %o0, 4, %o0
 6004ad8:	10 bf ff f1 	b  6004a9c <addrMapMultiLun+0x20>
 6004adc:	84 10 00 08 	mov  %o0, %g2

06004ae0 <NFC_Eraser_Cpu>:
 6004ae0:	91 32 20 04 	srl  %o0, 4, %o0
 6004ae4:	82 13 c0 00 	mov  %o7, %g1
 6004ae8:	7f ff f8 43 	call  6002bf4 <ONFI_EraseBlock>
 6004aec:	9e 10 40 00 	mov  %g1, %o7
 6004af0:	01 00 00 00 	nop 

06004af4 <NFC_ReadParameterPage>:
 6004af4:	9d e3 be a0 	save  %sp, -352, %sp
 6004af8:	7f ff f2 65 	call  600148c <ONFI_ReadParameterPage>
 6004afc:	90 10 20 00 	clr  %o0
 6004b00:	90 07 bf 00 	add  %fp, -256, %o0
 6004b04:	7f ff f9 d7 	call  6003260 <ONFI_receive8>
 6004b08:	92 10 21 00 	mov  0x100, %o1
 6004b0c:	81 c7 e0 08 	ret 
 6004b10:	81 e8 00 00 	restore 

06004b14 <Nfc_getFlashInfo>:
 6004b14:	9d e3 bf a0 	save  %sp, -96, %sp
 6004b18:	7f ff fe f1 	call  60046dc <Nfc_getFlashInfo_8>
 6004b1c:	01 00 00 00 	nop 
 6004b20:	7f ff ff f5 	call  6004af4 <NFC_ReadParameterPage>
 6004b24:	81 e8 00 00 	restore 
 6004b28:	01 00 00 00 	nop 

06004b2c <flashInfoStringInit>:
 6004b2c:	9d e3 bf a0 	save  %sp, -96, %sp
 6004b30:	07 03 40 00 	sethi  %hi(0xd000000), %g3
 6004b34:	82 10 e0 18 	or  %g3, 0x18, %g1	! d000018 <NandFlashInfoString>
 6004b38:	05 01 80 1c 	sethi  %hi(0x6007000), %g2
 6004b3c:	e0 18 a3 20 	ldd  [ %g2 + 0x320 ], %l0	! 6007320 <NandFlashInfoString_default>
 6004b40:	84 10 a3 20 	or  %g2, 0x320, %g2
 6004b44:	e0 38 e0 18 	std  %l0, [ %g3 + 0x18 ]
 6004b48:	d4 18 a0 18 	ldd  [ %g2 + 0x18 ], %o2
 6004b4c:	d8 18 a0 08 	ldd  [ %g2 + 8 ], %o4
 6004b50:	d0 18 a0 10 	ldd  [ %g2 + 0x10 ], %o0
 6004b54:	84 10 20 38 	mov  0x38, %g2
 6004b58:	d8 38 60 08 	std  %o4, [ %g1 + 8 ]
 6004b5c:	c4 28 60 06 	stb  %g2, [ %g1 + 6 ]
 6004b60:	84 10 20 31 	mov  0x31, %g2
 6004b64:	d0 38 60 10 	std  %o0, [ %g1 + 0x10 ]
 6004b68:	c4 28 60 0e 	stb  %g2, [ %g1 + 0xe ]
 6004b6c:	84 10 20 36 	mov  0x36, %g2
 6004b70:	c4 28 60 10 	stb  %g2, [ %g1 + 0x10 ]
 6004b74:	84 10 20 41 	mov  0x41, %g2
 6004b78:	c4 28 60 14 	stb  %g2, [ %g1 + 0x14 ]
 6004b7c:	84 10 20 35 	mov  0x35, %g2
 6004b80:	d4 38 60 18 	std  %o2, [ %g1 + 0x18 ]
 6004b84:	c4 28 60 16 	stb  %g2, [ %g1 + 0x16 ]
 6004b88:	84 10 20 32 	mov  0x32, %g2
 6004b8c:	c4 28 60 1c 	stb  %g2, [ %g1 + 0x1c ]
 6004b90:	84 10 20 34 	mov  0x34, %g2
 6004b94:	c4 28 60 1e 	stb  %g2, [ %g1 + 0x1e ]
 6004b98:	81 c7 e0 08 	ret 
 6004b9c:	81 e8 00 00 	restore 

06004ba0 <NFC_handler>:
 6004ba0:	9d e3 bf a0 	save  %sp, -96, %sp
 6004ba4:	25 03 40 00 	sethi  %hi(0xd000000), %l2
 6004ba8:	c4 04 a0 10 	ld  [ %l2 + 0x10 ], %g2	! d000010 <nfcReg>
 6004bac:	23 03 40 00 	sethi  %hi(0xd000000), %l1
 6004bb0:	c0 20 a0 14 	clr  [ %g2 + 0x14 ]
 6004bb4:	c2 00 a0 10 	ld  [ %g2 + 0x10 ], %g1
 6004bb8:	c6 00 a0 10 	ld  [ %g2 + 0x10 ], %g3
 6004bbc:	82 10 c0 01 	or  %g3, %g1, %g1
 6004bc0:	c2 20 a0 10 	st  %g1, [ %g2 + 0x10 ]
 6004bc4:	c2 04 60 0c 	ld  [ %l1 + 0xc ], %g1
 6004bc8:	80 88 60 01 	btst  1, %g1
 6004bcc:	02 80 00 27 	be  6004c68 <NFC_handler+0xc8>
 6004bd0:	03 03 40 00 	sethi  %hi(0xd000000), %g1
 6004bd4:	a0 10 60 3c 	or  %g1, 0x3c, %l0	! d00003c <nfcTrsState>
 6004bd8:	c6 0c 20 09 	ldub  [ %l0 + 9 ], %g3
 6004bdc:	80 a0 e0 55 	cmp  %g3, 0x55
 6004be0:	02 80 00 4e 	be  6004d18 <NFC_handler+0x178>
 6004be4:	01 00 00 00 	nop 
 6004be8:	c6 00 a0 04 	ld  [ %g2 + 4 ], %g3
 6004bec:	86 08 ff f4 	and  %g3, -12, %g3
 6004bf0:	c6 20 a0 04 	st  %g3, [ %g2 + 4 ]
 6004bf4:	a6 10 20 10 	mov  0x10, %l3
 6004bf8:	c6 00 a0 10 	ld  [ %g2 + 0x10 ], %g3
 6004bfc:	c8 00 a0 10 	ld  [ %g2 + 0x10 ], %g4
 6004c00:	86 11 00 03 	or  %g4, %g3, %g3
 6004c04:	c6 20 a0 10 	st  %g3, [ %g2 + 0x10 ]
 6004c08:	86 10 20 0a 	mov  0xa, %g3
 6004c0c:	c6 20 a0 14 	st  %g3, [ %g2 + 0x14 ]
 6004c10:	c4 00 60 3c 	ld  [ %g1 + 0x3c ], %g2
 6004c14:	80 a0 a0 0f 	cmp  %g2, 0xf
 6004c18:	08 80 00 4a 	bleu  6004d40 <NFC_handler+0x1a0>
 6004c1c:	01 00 00 00 	nop 
 6004c20:	c4 00 60 3c 	ld  [ %g1 + 0x3c ], %g2
 6004c24:	84 20 80 13 	sub  %g2, %l3, %g2
 6004c28:	c4 20 60 3c 	st  %g2, [ %g1 + 0x3c ]
 6004c2c:	92 10 00 13 	mov  %l3, %o1
 6004c30:	c2 00 60 3c 	ld  [ %g1 + 0x3c ], %g1
 6004c34:	80 a0 00 01 	cmp  %g0, %g1
 6004c38:	82 60 20 00 	subx  %g0, 0, %g1
 6004c3c:	82 08 60 11 	and  %g1, 0x11, %g1
 6004c40:	82 00 60 55 	add  %g1, 0x55, %g1
 6004c44:	c2 2c 20 09 	stb  %g1, [ %l0 + 9 ]
 6004c48:	82 10 20 66 	mov  0x66, %g1
 6004c4c:	c2 2c 20 0a 	stb  %g1, [ %l0 + 0xa ]
 6004c50:	d0 04 20 04 	ld  [ %l0 + 4 ], %o0
 6004c54:	7f ff ff 3a 	call  600493c <Disk_Program>
 6004c58:	01 00 00 00 	nop 
 6004c5c:	c2 04 20 04 	ld  [ %l0 + 4 ], %g1
 6004c60:	a6 04 c0 01 	add  %l3, %g1, %l3
 6004c64:	e6 24 20 04 	st  %l3, [ %l0 + 4 ]
 6004c68:	c2 04 60 0c 	ld  [ %l1 + 0xc ], %g1
 6004c6c:	80 88 60 08 	btst  8, %g1
 6004c70:	02 80 00 28 	be  6004d10 <NFC_handler+0x170>
 6004c74:	03 03 40 00 	sethi  %hi(0xd000000), %g1
 6004c78:	a0 10 60 3c 	or  %g1, 0x3c, %l0	! d00003c <nfcTrsState>
 6004c7c:	c4 0c 20 09 	ldub  [ %l0 + 9 ], %g2
 6004c80:	80 a0 a0 55 	cmp  %g2, 0x55
 6004c84:	02 80 00 31 	be  6004d48 <NFC_handler+0x1a8>
 6004c88:	c4 04 a0 10 	ld  [ %l2 + 0x10 ], %g2
 6004c8c:	c6 00 a0 04 	ld  [ %g2 + 4 ], %g3
 6004c90:	09 00 00 09 	sethi  %hi(0x2400), %g4
 6004c94:	86 28 c0 04 	andn  %g3, %g4, %g3
 6004c98:	c6 20 a0 04 	st  %g3, [ %g2 + 4 ]
 6004c9c:	a2 10 20 10 	mov  0x10, %l1
 6004ca0:	c6 00 a0 10 	ld  [ %g2 + 0x10 ], %g3
 6004ca4:	c8 00 a0 10 	ld  [ %g2 + 0x10 ], %g4
 6004ca8:	86 11 00 03 	or  %g4, %g3, %g3
 6004cac:	c6 20 a0 10 	st  %g3, [ %g2 + 0x10 ]
 6004cb0:	86 10 20 0a 	mov  0xa, %g3
 6004cb4:	c6 20 a0 14 	st  %g3, [ %g2 + 0x14 ]
 6004cb8:	c4 00 60 3c 	ld  [ %g1 + 0x3c ], %g2
 6004cbc:	80 a0 a0 0f 	cmp  %g2, 0xf
 6004cc0:	28 80 00 02 	bleu,a   6004cc8 <NFC_handler+0x128>
 6004cc4:	e2 00 60 3c 	ld  [ %g1 + 0x3c ], %l1
 6004cc8:	c4 00 60 3c 	ld  [ %g1 + 0x3c ], %g2
 6004ccc:	84 20 80 11 	sub  %g2, %l1, %g2
 6004cd0:	c4 20 60 3c 	st  %g2, [ %g1 + 0x3c ]
 6004cd4:	92 10 00 11 	mov  %l1, %o1
 6004cd8:	c2 00 60 3c 	ld  [ %g1 + 0x3c ], %g1
 6004cdc:	80 a0 00 01 	cmp  %g0, %g1
 6004ce0:	82 60 20 00 	subx  %g0, 0, %g1
 6004ce4:	82 08 60 11 	and  %g1, 0x11, %g1
 6004ce8:	82 00 60 55 	add  %g1, 0x55, %g1
 6004cec:	c2 2c 20 09 	stb  %g1, [ %l0 + 9 ]
 6004cf0:	82 10 20 66 	mov  0x66, %g1
 6004cf4:	c2 2c 20 0a 	stb  %g1, [ %l0 + 0xa ]
 6004cf8:	d0 04 20 04 	ld  [ %l0 + 4 ], %o0
 6004cfc:	7f ff fe b4 	call  60047cc <Disk_Read>
 6004d00:	01 00 00 00 	nop 
 6004d04:	c2 04 20 04 	ld  [ %l0 + 4 ], %g1
 6004d08:	a2 04 40 01 	add  %l1, %g1, %l1
 6004d0c:	e2 24 20 04 	st  %l1, [ %l0 + 4 ]
 6004d10:	81 c7 e0 08 	ret 
 6004d14:	81 e8 00 00 	restore 
 6004d18:	c2 00 a0 8c 	ld  [ %g2 + 0x8c ], %g1
 6004d1c:	80 a0 62 00 	cmp  %g1, 0x200
 6004d20:	12 bf ff fe 	bne  6004d18 <NFC_handler+0x178>
 6004d24:	01 00 00 00 	nop 
 6004d28:	c2 00 a0 04 	ld  [ %g2 + 4 ], %g1
 6004d2c:	82 08 7f e4 	and  %g1, -28, %g1
 6004d30:	c2 20 a0 04 	st  %g1, [ %g2 + 4 ]
 6004d34:	40 00 01 aa 	call  60053dc <switchCryptoMode>
 6004d38:	90 10 20 36 	mov  0x36, %o0
 6004d3c:	30 bf ff cb 	b,a   6004c68 <NFC_handler+0xc8>
 6004d40:	e6 00 60 3c 	ld  [ %g1 + 0x3c ], %l3
 6004d44:	30 bf ff b7 	b,a   6004c20 <NFC_handler+0x80>
 6004d48:	c2 00 a0 8c 	ld  [ %g2 + 0x8c ], %g1
 6004d4c:	80 a0 62 00 	cmp  %g1, 0x200
 6004d50:	12 bf ff fe 	bne  6004d48 <NFC_handler+0x1a8>
 6004d54:	01 00 00 00 	nop 
 6004d58:	c6 00 a0 04 	ld  [ %g2 + 4 ], %g3
 6004d5c:	03 3f ff f6 	sethi  %hi(0xffffd800), %g1
 6004d60:	82 10 62 ff 	or  %g1, 0x2ff, %g1	! ffffdaff <RAM_END+0xf2ff6aff>
 6004d64:	82 08 c0 01 	and  %g3, %g1, %g1
 6004d68:	c2 20 a0 04 	st  %g1, [ %g2 + 4 ]
 6004d6c:	40 00 01 9c 	call  60053dc <switchCryptoMode>
 6004d70:	91 e8 20 36 	restore  %g0, 0x36, %o0
 6004d74:	01 00 00 00 	nop 

06004d78 <NFC_Flash_Init>:
 6004d78:	9d e3 bf a0 	save  %sp, -96, %sp
 6004d7c:	03 03 40 00 	sethi  %hi(0xd000000), %g1
 6004d80:	05 08 00 c0 	sethi  %hi(0x20030000), %g2
 6004d84:	11 03 40 00 	sethi  %hi(0xd000000), %o0
 6004d88:	c4 20 60 10 	st  %g2, [ %g1 + 0x10 ]
 6004d8c:	03 03 40 00 	sethi  %hi(0xd000000), %g1
 6004d90:	05 08 00 d0 	sethi  %hi(0x20034000), %g2
 6004d94:	90 12 20 3c 	or  %o0, 0x3c, %o0
 6004d98:	c4 20 60 38 	st  %g2, [ %g1 + 0x38 ]
 6004d9c:	03 03 40 00 	sethi  %hi(0xd000000), %g1
 6004da0:	05 08 00 d6 	sethi  %hi(0x20035800), %g2
 6004da4:	92 10 20 00 	clr  %o1
 6004da8:	c4 20 60 08 	st  %g2, [ %g1 + 8 ]
 6004dac:	03 03 40 00 	sethi  %hi(0xd000000), %g1
 6004db0:	84 00 a4 00 	add  %g2, 0x400, %g2
 6004db4:	94 10 20 0c 	mov  0xc, %o2
 6004db8:	c4 20 60 04 	st  %g2, [ %g1 + 4 ]
 6004dbc:	03 03 40 00 	sethi  %hi(0xd000000), %g1
 6004dc0:	05 08 00 f0 	sethi  %hi(0x2003c000), %g2
 6004dc4:	7f ff ef e5 	call  6000d58 <memset8>
 6004dc8:	c4 20 60 14 	st  %g2, [ %g1 + 0x14 ]
 6004dcc:	80 a6 20 02 	cmp  %i0, 2
 6004dd0:	02 80 00 25 	be  6004e64 <NFC_Flash_Init+0xec>
 6004dd4:	92 10 20 04 	mov  4, %o1
 6004dd8:	08 80 00 09 	bleu  6004dfc <NFC_Flash_Init+0x84>
 6004ddc:	80 a6 20 01 	cmp  %i0, 1
 6004de0:	80 a6 20 03 	cmp  %i0, 3
 6004de4:	02 80 00 2e 	be  6004e9c <NFC_Flash_Init+0x124>
 6004de8:	80 a6 20 04 	cmp  %i0, 4
 6004dec:	02 80 00 10 	be  6004e2c <NFC_Flash_Init+0xb4>
 6004df0:	92 10 20 00 	clr  %o1
 6004df4:	81 c7 e0 08 	ret 
 6004df8:	81 e8 00 00 	restore 
 6004dfc:	12 bf ff fe 	bne  6004df4 <NFC_Flash_Init+0x7c>
 6004e00:	92 10 20 04 	mov  4, %o1
 6004e04:	b0 0e 60 ff 	and  %i1, 0xff, %i0
 6004e08:	7f ff fb 68 	call  6003ba8 <ONFI_init>
 6004e0c:	90 10 00 18 	mov  %i0, %o0
 6004e10:	7f ff f0 f6 	call  60011e8 <ONFI_Reset>
 6004e14:	01 00 00 00 	nop 
 6004e18:	92 10 00 19 	mov  %i1, %o1
 6004e1c:	7f ff f2 14 	call  600166c <ONFI_SetFeatures>
 6004e20:	90 10 20 01 	mov  1, %o0
 6004e24:	7f ff fa e9 	call  60039c8 <ONFI_set_speed>
 6004e28:	81 e8 00 00 	restore 
 6004e2c:	b0 0e 60 ff 	and  %i1, 0xff, %i0
 6004e30:	7f ff fb 5e 	call  6003ba8 <ONFI_init>
 6004e34:	90 10 00 18 	mov  %i0, %o0
 6004e38:	7f ff f0 ec 	call  60011e8 <ONFI_Reset>
 6004e3c:	01 00 00 00 	nop 
 6004e40:	92 16 60 10 	or  %i1, 0x10, %o1
 6004e44:	7f ff f2 0a 	call  600166c <ONFI_SetFeatures>
 6004e48:	90 10 20 01 	mov  1, %o0
 6004e4c:	7f ff fa ad 	call  6003900 <NFC_Set_Mode>
 6004e50:	90 10 20 02 	mov  2, %o0
 6004e54:	7f ff f1 2c 	call  6001304 <ONFI_SynchronousReset>
 6004e58:	01 00 00 00 	nop 
 6004e5c:	7f ff fa db 	call  60039c8 <ONFI_set_speed>
 6004e60:	81 e8 00 00 	restore 
 6004e64:	b0 0e 60 ff 	and  %i1, 0xff, %i0
 6004e68:	7f ff fb 50 	call  6003ba8 <ONFI_init>
 6004e6c:	90 10 00 18 	mov  %i0, %o0
 6004e70:	7f ff f0 de 	call  60011e8 <ONFI_Reset>
 6004e74:	01 00 00 00 	nop 
 6004e78:	92 16 60 10 	or  %i1, 0x10, %o1
 6004e7c:	7f ff f1 fc 	call  600166c <ONFI_SetFeatures>
 6004e80:	90 10 20 01 	mov  1, %o0
 6004e84:	7f ff fa 9f 	call  6003900 <NFC_Set_Mode>
 6004e88:	90 10 20 06 	mov  6, %o0
 6004e8c:	7f ff f1 1e 	call  6001304 <ONFI_SynchronousReset>
 6004e90:	01 00 00 00 	nop 
 6004e94:	7f ff fa cd 	call  60039c8 <ONFI_set_speed>
 6004e98:	81 e8 00 00 	restore 
 6004e9c:	92 10 20 00 	clr  %o1
 6004ea0:	b0 0e 60 ff 	and  %i1, 0xff, %i0
 6004ea4:	7f ff fb 41 	call  6003ba8 <ONFI_init>
 6004ea8:	90 10 00 18 	mov  %i0, %o0
 6004eac:	7f ff f0 cf 	call  60011e8 <ONFI_Reset>
 6004eb0:	01 00 00 00 	nop 
 6004eb4:	92 10 00 19 	mov  %i1, %o1
 6004eb8:	7f ff f1 ed 	call  600166c <ONFI_SetFeatures>
 6004ebc:	90 10 20 01 	mov  1, %o0
 6004ec0:	7f ff fa c2 	call  60039c8 <ONFI_set_speed>
 6004ec4:	81 e8 00 00 	restore 
 6004ec8:	01 00 00 00 	nop 

06004ecc <NFC_Reset>:
 6004ecc:	90 10 20 01 	mov  1, %o0	! 1 <data_start+0x1>
 6004ed0:	92 10 20 05 	mov  5, %o1
 6004ed4:	82 13 c0 00 	mov  %o7, %g1
 6004ed8:	7f ff ff a8 	call  6004d78 <NFC_Flash_Init>
 6004edc:	9e 10 40 00 	mov  %g1, %o7
 6004ee0:	01 00 00 00 	nop 

06004ee4 <nandFlashRead>:
 6004ee4:	9d e3 bf a0 	save  %sp, -96, %sp
 6004ee8:	23 03 40 00 	sethi  %hi(0xd000000), %l1
 6004eec:	a0 14 60 3c 	or  %l1, 0x3c, %l0	! d00003c <nfcTrsState>
 6004ef0:	90 10 20 40 	mov  0x40, %o0
 6004ef4:	f0 24 20 04 	st  %i0, [ %l0 + 4 ]
 6004ef8:	f2 24 60 3c 	st  %i1, [ %l1 + 0x3c ]
 6004efc:	40 00 01 38 	call  60053dc <switchCryptoMode>
 6004f00:	b0 0e 20 0f 	and  %i0, 0xf, %i0
 6004f04:	7f ff fd e3 	call  6004690 <NFC_IRQ_ENABLE>
 6004f08:	01 00 00 00 	nop 
 6004f0c:	82 10 20 10 	mov  0x10, %g1	! 10 <data_start+0x10>
 6004f10:	b0 20 40 18 	sub  %g1, %i0, %i0
 6004f14:	80 a6 00 19 	cmp  %i0, %i1
 6004f18:	38 80 00 02 	bgu,a   6004f20 <nandFlashRead+0x3c>
 6004f1c:	b0 10 00 19 	mov  %i1, %i0
 6004f20:	c2 04 60 3c 	ld  [ %l1 + 0x3c ], %g1
 6004f24:	82 20 40 18 	sub  %g1, %i0, %g1
 6004f28:	c2 24 60 3c 	st  %g1, [ %l1 + 0x3c ]
 6004f2c:	92 10 00 18 	mov  %i0, %o1
 6004f30:	c2 04 60 3c 	ld  [ %l1 + 0x3c ], %g1
 6004f34:	80 a0 00 01 	cmp  %g0, %g1
 6004f38:	82 60 20 00 	subx  %g0, 0, %g1
 6004f3c:	82 08 60 11 	and  %g1, 0x11, %g1
 6004f40:	82 00 60 55 	add  %g1, 0x55, %g1
 6004f44:	c2 2c 20 09 	stb  %g1, [ %l0 + 9 ]
 6004f48:	c0 2c 20 08 	clrb  [ %l0 + 8 ]
 6004f4c:	82 10 20 55 	mov  0x55, %g1
 6004f50:	c2 2c 20 0a 	stb  %g1, [ %l0 + 0xa ]
 6004f54:	d0 04 20 04 	ld  [ %l0 + 4 ], %o0
 6004f58:	7f ff fe 1d 	call  60047cc <Disk_Read>
 6004f5c:	01 00 00 00 	nop 
 6004f60:	c2 04 20 04 	ld  [ %l0 + 4 ], %g1
 6004f64:	b0 06 00 01 	add  %i0, %g1, %i0
 6004f68:	f0 24 20 04 	st  %i0, [ %l0 + 4 ]
 6004f6c:	81 c7 e0 08 	ret 
 6004f70:	81 e8 00 00 	restore 

06004f74 <nandFlashWrite>:
 6004f74:	9d e3 bf a0 	save  %sp, -96, %sp
 6004f78:	23 03 40 00 	sethi  %hi(0xd000000), %l1
 6004f7c:	a0 14 60 3c 	or  %l1, 0x3c, %l0	! d00003c <nfcTrsState>
 6004f80:	90 10 20 40 	mov  0x40, %o0
 6004f84:	a4 10 20 10 	mov  0x10, %l2
 6004f88:	f0 24 20 04 	st  %i0, [ %l0 + 4 ]
 6004f8c:	f2 24 60 3c 	st  %i1, [ %l1 + 0x3c ]
 6004f90:	40 00 01 13 	call  60053dc <switchCryptoMode>
 6004f94:	01 00 00 00 	nop 
 6004f98:	7f ff fd be 	call  6004690 <NFC_IRQ_ENABLE>
 6004f9c:	01 00 00 00 	nop 
 6004fa0:	c2 04 60 3c 	ld  [ %l1 + 0x3c ], %g1
 6004fa4:	80 a0 60 0f 	cmp  %g1, 0xf
 6004fa8:	28 80 00 02 	bleu,a   6004fb0 <nandFlashWrite+0x3c>
 6004fac:	e4 04 60 3c 	ld  [ %l1 + 0x3c ], %l2
 6004fb0:	c2 04 60 3c 	ld  [ %l1 + 0x3c ], %g1
 6004fb4:	82 20 40 12 	sub  %g1, %l2, %g1
 6004fb8:	c2 24 60 3c 	st  %g1, [ %l1 + 0x3c ]
 6004fbc:	92 10 00 12 	mov  %l2, %o1
 6004fc0:	c2 04 60 3c 	ld  [ %l1 + 0x3c ], %g1
 6004fc4:	80 a0 00 01 	cmp  %g0, %g1
 6004fc8:	82 60 20 00 	subx  %g0, 0, %g1
 6004fcc:	82 08 60 11 	and  %g1, 0x11, %g1
 6004fd0:	82 00 60 55 	add  %g1, 0x55, %g1
 6004fd4:	c2 2c 20 09 	stb  %g1, [ %l0 + 9 ]
 6004fd8:	c0 2c 20 08 	clrb  [ %l0 + 8 ]
 6004fdc:	82 10 20 55 	mov  0x55, %g1
 6004fe0:	c2 2c 20 0a 	stb  %g1, [ %l0 + 0xa ]
 6004fe4:	d0 04 20 04 	ld  [ %l0 + 4 ], %o0
 6004fe8:	7f ff fe 55 	call  600493c <Disk_Program>
 6004fec:	01 00 00 00 	nop 
 6004ff0:	c2 04 20 04 	ld  [ %l0 + 4 ], %g1
 6004ff4:	a4 04 80 01 	add  %l2, %g1, %l2
 6004ff8:	e4 24 20 04 	st  %l2, [ %l0 + 4 ]
 6004ffc:	81 c7 e0 08 	ret 
 6005000:	81 e8 00 00 	restore 
 6005004:	06 00 59 ac 	unknown
 6005008:	06 00 59 b4 	unknown
 600500c:	06 00 5a 00 	unknown
 6005010:	06 00 5a 4c 	unknown
 6005014:	06 00 59 ac 	unknown
 6005018:	06 00 59 ac 	unknown
 600501c:	06 00 5a 9c 	unknown
 6005020:	06 00 59 ac 	unknown
 6005024:	06 00 59 ac 	unknown
 6005028:	06 00 59 ac 	unknown
 600502c:	06 00 59 9c 	unknown
 6005030:	06 00 66 80 	unknown
 6005034:	06 00 66 80 	unknown
 6005038:	06 00 66 a8 	unknown
 600503c:	06 00 67 74 	unknown
 6005040:	06 00 66 a8 	unknown
 6005044:	06 00 66 e8 	unknown
 6005048:	06 00 67 90 	unknown
 600504c:	06 00 66 b0 	unknown
 6005050:	06 00 67 7c 	unknown
 6005054:	06 00 66 9c 	unknown
 6005058:	06 00 68 40 	unknown
 600505c:	06 00 68 10 	unknown
 6005060:	06 00 68 10 	unknown
 6005064:	06 00 68 cc 	unknown
 6005068:	06 00 68 10 	unknown
 600506c:	06 00 68 10 	unknown
 6005070:	06 00 68 10 	unknown
 6005074:	06 00 68 10 	unknown
 6005078:	06 00 68 10 	unknown
 600507c:	06 00 68 10 	unknown
 6005080:	06 00 68 10 	unknown
 6005084:	06 00 68 10 	unknown
 6005088:	06 00 68 10 	unknown
 600508c:	06 00 68 10 	unknown
 6005090:	06 00 68 10 	unknown
 6005094:	06 00 68 10 	unknown
 6005098:	06 00 68 10 	unknown
 600509c:	06 00 68 10 	unknown
 60050a0:	06 00 69 0c 	unknown
 60050a4:	06 00 68 10 	unknown
 60050a8:	06 00 68 10 	unknown
 60050ac:	06 00 68 10 	unknown
 60050b0:	06 00 68 10 	unknown
 60050b4:	06 00 68 10 	unknown
 60050b8:	06 00 68 10 	unknown
 60050bc:	06 00 68 10 	unknown
 60050c0:	06 00 69 28 	unknown
 60050c4:	06 00 68 40 	unknown
 60050c8:	06 00 68 10 	unknown
 60050cc:	06 00 68 10 	unknown
 60050d0:	06 00 69 60 	unknown
 60050d4:	06 00 68 10 	unknown
 60050d8:	06 00 68 10 	unknown
 60050dc:	06 00 68 10 	unknown
 60050e0:	06 00 68 10 	unknown
 60050e4:	06 00 69 70 	unknown
 60050e8:	06 00 68 10 	unknown
 60050ec:	06 00 69 8c 	unknown
 60050f0:	06 00 68 10 	unknown
 60050f4:	06 00 68 10 	unknown
 60050f8:	06 00 69 a8 	unknown
 60050fc:	06 00 68 10 	unknown
 6005100:	06 00 68 68 	unknown
 6005104:	06 00 68 10 	unknown
 6005108:	06 00 68 10 	unknown
 600510c:	06 00 68 10 	unknown
 6005110:	06 00 68 10 	unknown
 6005114:	06 00 68 40 	unknown
 6005118:	06 00 68 10 	unknown
 600511c:	06 00 68 10 	unknown
 6005120:	06 00 68 10 	unknown
 6005124:	06 00 68 10 	unknown
 6005128:	06 00 68 10 	unknown
 600512c:	06 00 68 10 	unknown
 6005130:	06 00 68 10 	unknown
 6005134:	06 00 68 10 	unknown
 6005138:	06 00 68 10 	unknown
 600513c:	06 00 68 10 	unknown
 6005140:	06 00 68 10 	unknown
 6005144:	06 00 68 10 	unknown
 6005148:	06 00 68 10 	unknown
 600514c:	06 00 68 10 	unknown
 6005150:	06 00 68 10 	unknown
 6005154:	06 00 68 10 	unknown
 6005158:	06 00 68 10 	unknown
 600515c:	06 00 68 10 	unknown
 6005160:	06 00 68 10 	unknown
 6005164:	06 00 68 10 	unknown
 6005168:	06 00 68 10 	unknown
 600516c:	06 00 68 10 	unknown
 6005170:	06 00 68 10 	unknown
 6005174:	06 00 68 10 	unknown
 6005178:	06 00 68 10 	unknown
 600517c:	06 00 68 10 	unknown
 6005180:	06 00 68 10 	unknown
 6005184:	06 00 68 10 	unknown
 6005188:	06 00 68 10 	unknown
 600518c:	06 00 68 10 	unknown
 6005190:	06 00 68 10 	unknown
 6005194:	06 00 68 10 	unknown
 6005198:	06 00 68 10 	unknown
 600519c:	06 00 68 10 	unknown
 60051a0:	06 00 68 10 	unknown
 60051a4:	06 00 68 10 	unknown
 60051a8:	06 00 68 10 	unknown
 60051ac:	06 00 68 10 	unknown
 60051b0:	06 00 68 10 	unknown
 60051b4:	06 00 68 10 	unknown
 60051b8:	06 00 68 10 	unknown
 60051bc:	06 00 68 10 	unknown
 60051c0:	06 00 69 44 	unknown

060051c4 <usb_otg_init>:
 60051c4:	9d e3 bf a0 	save  %sp, -96, %sp
 60051c8:	07 02 00 01 	sethi  %hi(0x8000400), %g3
 60051cc:	82 10 e1 24 	or  %g3, 0x124, %g1	! 8000524 <text_end+0x1ff9064>
 60051d0:	c4 00 40 00 	ld  [ %g1 ], %g2
 60051d4:	09 00 00 04 	sethi  %hi(0x1000), %g4
 60051d8:	84 28 80 04 	andn  %g2, %g4, %g2
 60051dc:	c4 20 40 00 	st  %g2, [ %g1 ]
 60051e0:	86 10 e1 00 	or  %g3, 0x100, %g3
 60051e4:	05 00 00 40 	sethi  %hi(0x10000), %g2
 60051e8:	da 00 40 00 	ld  [ %g1 ], %o5
 60051ec:	88 13 40 04 	or  %o5, %g4, %g4
 60051f0:	c8 20 40 00 	st  %g4, [ %g1 ]
 60051f4:	c2 00 c0 00 	ld  [ %g3 ], %g1
 60051f8:	80 88 40 02 	btst  %g1, %g2
 60051fc:	02 bf ff fe 	be  60051f4 <usb_otg_init+0x30>
 6005200:	03 03 40 02 	sethi  %hi(0xd000800), %g1
 6005204:	05 02 00 01 	sethi  %hi(0x8000400), %g2
 6005208:	c2 00 61 4c 	ld  [ %g1 + 0x14c ], %g1
 600520c:	84 10 a1 18 	or  %g2, 0x118, %g2
 6005210:	07 00 00 37 	sethi  %hi(0xdc00), %g3
 6005214:	86 10 e3 ff 	or  %g3, 0x3ff, %g3	! dfff <RAM_LENGTH+0x6fff>
 6005218:	c6 20 80 00 	st  %g3, [ %g2 ]
 600521c:	c0 20 60 08 	clr  [ %g1 + 8 ]
 6005220:	05 00 00 21 	sethi  %hi(0x8400), %g2
 6005224:	c4 20 60 04 	st  %g2, [ %g1 + 4 ]
 6005228:	81 c7 e0 08 	ret 
 600522c:	81 e8 00 00 	restore 

06005230 <usb_dev_ep3_rx>:
 6005230:	9d e3 bf a0 	save  %sp, -96, %sp
 6005234:	03 03 40 00 	sethi  %hi(0xd000000), %g1
 6005238:	c2 00 60 b8 	ld  [ %g1 + 0xb8 ], %g1	! d0000b8 <pUsbCptReg>
 600523c:	c4 00 60 c4 	ld  [ %g1 + 0xc4 ], %g2
 6005240:	86 10 20 95 	mov  0x95, %g3
 6005244:	85 30 a0 10 	srl  %g2, 0x10, %g2
 6005248:	c6 20 60 c0 	st  %g3, [ %g1 + 0xc0 ]
 600524c:	a2 88 a7 ff 	andcc  %g2, 0x7ff, %l1
 6005250:	02 80 00 27 	be  60052ec <usb_dev_ep3_rx+0xbc>
 6005254:	21 16 80 00 	sethi  %hi(0x5a000000), %l0
 6005258:	1f 00 00 3f 	sethi  %hi(0xfc00), %o7
 600525c:	84 10 00 18 	mov  %i0, %g2
 6005260:	a0 14 20 03 	or  %l0, 3, %l0
 6005264:	9e 13 e3 00 	or  %o7, 0x300, %o7
 6005268:	92 10 00 11 	mov  %l1, %o1
 600526c:	11 00 3f c0 	sethi  %hi(0xff0000), %o0
 6005270:	c6 00 60 c4 	ld  [ %g1 + 0xc4 ], %g3
 6005274:	80 88 e0 08 	btst  8, %g3
 6005278:	02 bf ff fe 	be  6005270 <usb_dev_ep3_rx+0x40>
 600527c:	01 00 00 00 	nop 
 6005280:	e0 20 62 04 	st  %l0, [ %g1 + 0x204 ]
 6005284:	9a 10 00 02 	mov  %g2, %o5
 6005288:	88 10 20 00 	clr  %g4
 600528c:	86 01 20 82 	add  %g4, 0x82, %g3
 6005290:	87 28 e0 02 	sll  %g3, 2, %g3
 6005294:	c6 00 40 03 	ld  [ %g1 + %g3 ], %g3
 6005298:	99 28 e0 08 	sll  %g3, 8, %o4
 600529c:	95 28 e0 18 	sll  %g3, 0x18, %o2
 60052a0:	97 30 e0 18 	srl  %g3, 0x18, %o3
 60052a4:	98 0b 00 08 	and  %o4, %o0, %o4
 60052a8:	96 12 80 0b 	or  %o2, %o3, %o3
 60052ac:	87 30 e0 08 	srl  %g3, 8, %g3
 60052b0:	86 08 c0 0f 	and  %g3, %o7, %g3
 60052b4:	86 12 c0 03 	or  %o3, %g3, %g3
 60052b8:	86 10 c0 0c 	or  %g3, %o4, %g3
 60052bc:	c6 23 40 00 	st  %g3, [ %o5 ]
 60052c0:	88 01 20 01 	inc  %g4
 60052c4:	80 a1 20 04 	cmp  %g4, 4
 60052c8:	12 bf ff f1 	bne  600528c <usb_dev_ep3_rx+0x5c>
 60052cc:	9a 03 60 04 	add  %o5, 4, %o5
 60052d0:	80 a2 60 10 	cmp  %o1, 0x10
 60052d4:	08 80 00 03 	bleu  60052e0 <usb_dev_ep3_rx+0xb0>
 60052d8:	86 10 00 09 	mov  %o1, %g3
 60052dc:	86 10 20 10 	mov  0x10, %g3
 60052e0:	92 a2 40 03 	subcc  %o1, %g3, %o1
 60052e4:	12 bf ff e3 	bne  6005270 <usb_dev_ep3_rx+0x40>
 60052e8:	84 00 a0 10 	add  %g2, 0x10, %g2
 60052ec:	81 c7 e0 08 	ret 
 60052f0:	91 e8 00 11 	restore  %g0, %l1, %o0

060052f4 <usb_dev_ep4_tx>:
 60052f4:	9d e3 bf a0 	save  %sp, -96, %sp
 60052f8:	03 03 40 00 	sethi  %hi(0xd000000), %g1
 60052fc:	c2 00 60 b8 	ld  [ %g1 + 0xb8 ], %g1	! d0000b8 <pUsbCptReg>
 6005300:	84 10 20 8d 	mov  0x8d, %g2
 6005304:	80 a6 60 00 	cmp  %i1, 0
 6005308:	c4 20 61 00 	st  %g2, [ %g1 + 0x100 ]
 600530c:	02 80 00 25 	be  60053a0 <usb_dev_ep4_tx+0xac>
 6005310:	05 03 40 02 	sethi  %hi(0xd000800), %g2
 6005314:	21 00 00 3f 	sethi  %hi(0xfc00), %l0
 6005318:	92 10 00 19 	mov  %i1, %o1
 600531c:	a0 14 23 00 	or  %l0, 0x300, %l0
 6005320:	1f 00 3f c0 	sethi  %hi(0xff0000), %o7
 6005324:	80 a2 60 10 	cmp  %o1, 0x10
 6005328:	08 80 00 03 	bleu  6005334 <usb_dev_ep4_tx+0x40>
 600532c:	90 10 00 09 	mov  %o1, %o0
 6005330:	90 10 20 10 	mov  0x10, %o0
 6005334:	c4 00 61 04 	ld  [ %g1 + 0x104 ], %g2
 6005338:	80 88 a0 10 	btst  0x10, %g2
 600533c:	02 bf ff fe 	be  6005334 <usb_dev_ep4_tx+0x40>
 6005340:	88 10 00 18 	mov  %i0, %g4
 6005344:	86 10 20 00 	clr  %g3
 6005348:	9a 00 e0 42 	add  %g3, 0x42, %o5
 600534c:	9b 2b 60 02 	sll  %o5, 2, %o5
 6005350:	c4 01 00 00 	ld  [ %g4 ], %g2
 6005354:	99 28 a0 08 	sll  %g2, 8, %o4
 6005358:	95 28 a0 18 	sll  %g2, 0x18, %o2
 600535c:	97 30 a0 18 	srl  %g2, 0x18, %o3
 6005360:	98 0b 00 0f 	and  %o4, %o7, %o4
 6005364:	96 12 80 0b 	or  %o2, %o3, %o3
 6005368:	85 30 a0 08 	srl  %g2, 8, %g2
 600536c:	84 08 80 10 	and  %g2, %l0, %g2
 6005370:	84 12 c0 02 	or  %o3, %g2, %g2
 6005374:	84 10 80 0c 	or  %g2, %o4, %g2
 6005378:	c4 20 40 0d 	st  %g2, [ %g1 + %o5 ]
 600537c:	86 00 e0 01 	inc  %g3
 6005380:	80 a0 e0 04 	cmp  %g3, 4
 6005384:	12 bf ff f1 	bne  6005348 <usb_dev_ep4_tx+0x54>
 6005388:	88 01 20 04 	add  %g4, 4, %g4
 600538c:	d0 20 61 18 	st  %o0, [ %g1 + 0x118 ]
 6005390:	92 a2 40 08 	subcc  %o1, %o0, %o1
 6005394:	12 bf ff e4 	bne  6005324 <usb_dev_ep4_tx+0x30>
 6005398:	b0 06 20 10 	add  %i0, 0x10, %i0
 600539c:	05 03 40 02 	sethi  %hi(0xd000800), %g2
 60053a0:	c6 00 a1 5c 	ld  [ %g2 + 0x15c ], %g3	! d00095c <pUsbDevReg>
 60053a4:	f2 20 e0 f4 	st  %i1, [ %g3 + 0xf4 ]
 60053a8:	c4 00 62 18 	ld  [ %g1 + 0x218 ], %g2
 60053ac:	80 88 a0 08 	btst  8, %g2
 60053b0:	02 bf ff fe 	be  60053a8 <usb_dev_ep4_tx+0xb4>
 60053b4:	84 10 20 08 	mov  8, %g2
 60053b8:	c4 20 62 18 	st  %g2, [ %g1 + 0x218 ]
 60053bc:	c4 00 e0 e0 	ld  [ %g3 + 0xe0 ], %g2
 60053c0:	c8 00 e0 e0 	ld  [ %g3 + 0xe0 ], %g4
 60053c4:	84 11 00 02 	or  %g4, %g2, %g2
 60053c8:	c4 20 e0 e0 	st  %g2, [ %g3 + 0xe0 ]
 60053cc:	84 10 20 95 	mov  0x95, %g2
 60053d0:	c4 20 60 c0 	st  %g2, [ %g1 + 0xc0 ]
 60053d4:	81 c7 e0 08 	ret 
 60053d8:	81 e8 00 00 	restore 

060053dc <switchCryptoMode>:
 60053dc:	80 a2 20 36 	cmp  %o0, 0x36
 60053e0:	02 80 00 18 	be  6005440 <switchCryptoMode+0x64>
 60053e4:	80 a2 20 40 	cmp  %o0, 0x40
 60053e8:	12 80 00 14 	bne  6005438 <switchCryptoMode+0x5c>
 60053ec:	03 03 40 00 	sethi  %hi(0xd000000), %g1
 60053f0:	c2 00 60 b8 	ld  [ %g1 + 0xb8 ], %g1	! d0000b8 <pUsbCptReg>
 60053f4:	05 00 00 40 	sethi  %hi(0x10000), %g2
 60053f8:	86 10 a0 9d 	or  %g2, 0x9d, %g3	! 1009d <RAM_LENGTH+0x909d>
 60053fc:	84 10 a0 9f 	or  %g2, 0x9f, %g2
 6005400:	c6 20 60 c0 	st  %g3, [ %g1 + 0xc0 ]
 6005404:	c4 20 61 00 	st  %g2, [ %g1 + 0x100 ]
 6005408:	05 03 40 02 	sethi  %hi(0xd000800), %g2
 600540c:	c4 00 a1 5c 	ld  [ %g2 + 0x15c ], %g2	! d00095c <pUsbDevReg>
 6005410:	c6 00 a0 08 	ld  [ %g2 + 8 ], %g3
 6005414:	86 08 ff df 	and  %g3, -33, %g3
 6005418:	c6 20 a0 08 	st  %g3, [ %g2 + 8 ]
 600541c:	c4 00 62 00 	ld  [ %g1 + 0x200 ], %g2
 6005420:	84 08 bf fb 	and  %g2, -5, %g2
 6005424:	c4 20 62 00 	st  %g2, [ %g1 + 0x200 ]
 6005428:	03 03 40 00 	sethi  %hi(0xd000000), %g1
 600542c:	c0 20 60 90 	clr  [ %g1 + 0x90 ]	! d000090 <epInMask>
 6005430:	03 03 40 00 	sethi  %hi(0xd000000), %g1
 6005434:	c0 20 60 bc 	clr  [ %g1 + 0xbc ]	! d0000bc <epOutMask>
 6005438:	81 c3 e0 08 	retl 
 600543c:	01 00 00 00 	nop 
 6005440:	03 03 40 00 	sethi  %hi(0xd000000), %g1
 6005444:	c4 00 60 b8 	ld  [ %g1 + 0xb8 ], %g2	! d0000b8 <pUsbCptReg>
 6005448:	82 10 20 95 	mov  0x95, %g1
 600544c:	c2 20 a0 c0 	st  %g1, [ %g2 + 0xc0 ]
 6005450:	82 10 20 8d 	mov  0x8d, %g1
 6005454:	c2 20 a1 00 	st  %g1, [ %g2 + 0x100 ]
 6005458:	03 03 40 02 	sethi  %hi(0xd000800), %g1
 600545c:	c2 00 61 5c 	ld  [ %g1 + 0x15c ], %g1	! d00095c <pUsbDevReg>
 6005460:	c6 00 60 e0 	ld  [ %g1 + 0xe0 ], %g3
 6005464:	c8 00 60 e0 	ld  [ %g1 + 0xe0 ], %g4
 6005468:	86 11 00 03 	or  %g4, %g3, %g3
 600546c:	c6 20 60 e0 	st  %g3, [ %g1 + 0xe0 ]
 6005470:	86 10 20 01 	mov  1, %g3
 6005474:	c8 00 60 08 	ld  [ %g1 + 8 ], %g4
 6005478:	88 11 20 20 	or  %g4, 0x20, %g4
 600547c:	c8 20 60 08 	st  %g4, [ %g1 + 8 ]
 6005480:	c2 00 a2 00 	ld  [ %g2 + 0x200 ], %g1
 6005484:	82 10 60 04 	or  %g1, 4, %g1
 6005488:	c2 20 a2 00 	st  %g1, [ %g2 + 0x200 ]
 600548c:	03 03 40 00 	sethi  %hi(0xd000000), %g1
 6005490:	c6 20 60 90 	st  %g3, [ %g1 + 0x90 ]	! d000090 <epInMask>
 6005494:	03 03 40 00 	sethi  %hi(0xd000000), %g1
 6005498:	c6 20 60 bc 	st  %g3, [ %g1 + 0xbc ]	! d0000bc <epOutMask>
 600549c:	81 c3 e0 08 	retl 
 60054a0:	01 00 00 00 	nop 

060054a4 <usb_cep_update>:
 60054a4:	9d e3 bf a0 	save  %sp, -96, %sp
 60054a8:	03 03 40 00 	sethi  %hi(0xd000000), %g1
 60054ac:	82 10 60 98 	or  %g1, 0x98, %g1	! d000098 <cep>
 60054b0:	c4 08 60 01 	ldub  [ %g1 + 1 ], %g2
 60054b4:	80 a0 a0 03 	cmp  %g2, 3
 60054b8:	02 80 00 1a 	be  6005520 <usb_cep_update+0x7c>
 60054bc:	80 a0 a0 05 	cmp  %g2, 5
 60054c0:	12 80 00 16 	bne  6005518 <usb_cep_update+0x74>
 60054c4:	05 03 40 02 	sethi  %hi(0xd000800), %g2
 60054c8:	c4 00 a1 5c 	ld  [ %g2 + 0x15c ], %g2	! d00095c <pUsbDevReg>
 60054cc:	c6 08 60 02 	ldub  [ %g1 + 2 ], %g3
 60054d0:	c6 20 a0 20 	st  %g3, [ %g2 + 0x20 ]
 60054d4:	da 08 60 14 	ldub  [ %g1 + 0x14 ], %o5
 60054d8:	c8 08 60 15 	ldub  [ %g1 + 0x15 ], %g4
 60054dc:	c6 08 60 17 	ldub  [ %g1 + 0x17 ], %g3
 60054e0:	9b 2b 60 18 	sll  %o5, 0x18, %o5
 60054e4:	c4 08 60 16 	ldub  [ %g1 + 0x16 ], %g2
 60054e8:	89 29 20 10 	sll  %g4, 0x10, %g4
 60054ec:	88 11 00 0d 	or  %g4, %o5, %g4
 60054f0:	85 28 a0 08 	sll  %g2, 8, %g2
 60054f4:	84 10 80 04 	or  %g2, %g4, %g2
 60054f8:	84 10 c0 02 	or  %g3, %g2, %g2
 60054fc:	9b 30 a0 18 	srl  %g2, 0x18, %o5
 6005500:	89 30 a0 10 	srl  %g2, 0x10, %g4
 6005504:	87 30 a0 08 	srl  %g2, 8, %g3
 6005508:	c4 28 60 13 	stb  %g2, [ %g1 + 0x13 ]
 600550c:	da 28 60 10 	stb  %o5, [ %g1 + 0x10 ]
 6005510:	c8 28 60 11 	stb  %g4, [ %g1 + 0x11 ]
 6005514:	c6 28 60 12 	stb  %g3, [ %g1 + 0x12 ]
 6005518:	81 c7 e0 08 	ret 
 600551c:	81 e8 00 00 	restore 
 6005520:	03 03 40 02 	sethi  %hi(0xd000800), %g1
 6005524:	c2 00 61 5c 	ld  [ %g1 + 0x15c ], %g1	! d00095c <pUsbDevReg>
 6005528:	05 03 40 02 	sethi  %hi(0xd000800), %g2
 600552c:	c4 00 a1 50 	ld  [ %g2 + 0x150 ], %g2	! d000950 <testSel>
 6005530:	c4 20 60 24 	st  %g2, [ %g1 + 0x24 ]
 6005534:	81 c7 e0 08 	ret 
 6005538:	81 e8 00 00 	restore 

0600553c <usb_cep_sent>:
 600553c:	9d e3 bf a0 	save  %sp, -96, %sp
 6005540:	19 03 40 00 	sethi  %hi(0xd000000), %o4
 6005544:	98 13 20 98 	or  %o4, 0x98, %o4	! d000098 <cep>
 6005548:	d2 0b 20 08 	ldub  [ %o4 + 8 ], %o1
 600554c:	d6 0b 20 09 	ldub  [ %o4 + 9 ], %o3
 6005550:	c2 0b 20 0a 	ldub  [ %o4 + 0xa ], %g1
 6005554:	da 0b 20 0b 	ldub  [ %o4 + 0xb ], %o5
 6005558:	c8 0b 20 0c 	ldub  [ %o4 + 0xc ], %g4
 600555c:	c6 0b 20 0d 	ldub  [ %o4 + 0xd ], %g3
 6005560:	d4 0b 20 0e 	ldub  [ %o4 + 0xe ], %o2
 6005564:	c4 0b 20 0f 	ldub  [ %o4 + 0xf ], %g2
 6005568:	93 2a 60 18 	sll  %o1, 0x18, %o1
 600556c:	97 2a e0 10 	sll  %o3, 0x10, %o3
 6005570:	83 28 60 08 	sll  %g1, 8, %g1
 6005574:	96 12 c0 09 	or  %o3, %o1, %o3
 6005578:	89 29 20 18 	sll  %g4, 0x18, %g4
 600557c:	82 10 40 0b 	or  %g1, %o3, %g1
 6005580:	87 28 e0 10 	sll  %g3, 0x10, %g3
 6005584:	95 2a a0 08 	sll  %o2, 8, %o2
 6005588:	86 10 c0 04 	or  %g3, %g4, %g3
 600558c:	94 12 80 03 	or  %o2, %g3, %o2
 6005590:	94 90 80 0a 	orcc  %g2, %o2, %o2
 6005594:	02 80 00 5c 	be  6005704 <usb_cep_sent+0x1c8>
 6005598:	82 13 40 01 	or  %o5, %g1, %g1
 600559c:	80 a2 a0 40 	cmp  %o2, 0x40
 60055a0:	18 80 00 4d 	bgu  60056d4 <usb_cep_sent+0x198>
 60055a4:	92 10 00 0a 	mov  %o2, %o1
 60055a8:	05 03 40 02 	sethi  %hi(0xd000800), %g2
 60055ac:	c6 00 a1 5c 	ld  [ %g2 + 0x15c ], %g3	! d00095c <pUsbDevReg>
 60055b0:	84 10 20 08 	mov  8, %g2
 60055b4:	c4 20 e0 2c 	st  %g2, [ %g3 + 0x2c ]
 60055b8:	c4 00 e0 2c 	ld  [ %g3 + 0x2c ], %g2
 60055bc:	80 88 a0 08 	btst  8, %g2
 60055c0:	12 bf ff fe 	bne  60055b8 <usb_cep_sent+0x7c>
 60055c4:	96 02 60 01 	add  %o1, 1, %o3
 60055c8:	97 32 e0 01 	srl  %o3, 1, %o3
 60055cc:	80 a2 e0 00 	cmp  %o3, 0
 60055d0:	02 80 00 0d 	be  6005604 <usb_cep_sent+0xc8>
 60055d4:	01 00 00 00 	nop 
 60055d8:	84 10 20 00 	clr  %g2	! 0 <data_start>
 60055dc:	da 08 60 01 	ldub  [ %g1 + 1 ], %o5
 60055e0:	c8 08 40 00 	ldub  [ %g1 ], %g4
 60055e4:	9b 2b 60 08 	sll  %o5, 8, %o5
 60055e8:	88 09 20 ff 	and  %g4, 0xff, %g4
 60055ec:	88 11 00 0d 	or  %g4, %o5, %g4
 60055f0:	c8 20 e0 28 	st  %g4, [ %g3 + 0x28 ]
 60055f4:	84 00 a0 01 	inc  %g2
 60055f8:	80 a0 80 0b 	cmp  %g2, %o3
 60055fc:	0a bf ff f8 	bcs  60055dc <usb_cep_sent+0xa0>
 6005600:	82 00 60 02 	add  %g1, 2, %g1
 6005604:	d2 20 e0 38 	st  %o1, [ %g3 + 0x38 ]
 6005608:	c2 0b 20 1e 	ldub  [ %o4 + 0x1e ], %g1
 600560c:	80 a0 60 01 	cmp  %g1, 1
 6005610:	02 80 00 28 	be  60056b0 <usb_cep_sent+0x174>
 6005614:	01 00 00 00 	nop 
 6005618:	c2 00 e0 34 	ld  [ %g3 + 0x34 ], %g1
 600561c:	82 08 64 20 	and  %g1, 0x420, %g1
 6005620:	80 a0 64 20 	cmp  %g1, 0x420
 6005624:	12 bf ff fd 	bne  6005618 <usb_cep_sent+0xdc>
 6005628:	80 a2 a0 40 	cmp  %o2, 0x40
 600562c:	08 80 00 2c 	bleu  60056dc <usb_cep_sent+0x1a0>
 6005630:	94 02 bf c0 	add  %o2, -64, %o2
 6005634:	c8 0b 20 08 	ldub  [ %o4 + 8 ], %g4
 6005638:	c6 0b 20 09 	ldub  [ %o4 + 9 ], %g3
 600563c:	c4 0b 20 0b 	ldub  [ %o4 + 0xb ], %g2
 6005640:	c2 0b 20 0a 	ldub  [ %o4 + 0xa ], %g1
 6005644:	89 29 20 18 	sll  %g4, 0x18, %g4
 6005648:	87 28 e0 10 	sll  %g3, 0x10, %g3
 600564c:	86 10 c0 04 	or  %g3, %g4, %g3
 6005650:	83 28 60 08 	sll  %g1, 8, %g1
 6005654:	93 32 a0 18 	srl  %o2, 0x18, %o1
 6005658:	82 10 40 03 	or  %g1, %g3, %g1
 600565c:	97 32 a0 10 	srl  %o2, 0x10, %o3
 6005660:	82 10 80 01 	or  %g2, %g1, %g1
 6005664:	9b 32 a0 08 	srl  %o2, 8, %o5
 6005668:	82 00 60 40 	add  %g1, 0x40, %g1
 600566c:	89 30 60 18 	srl  %g1, 0x18, %g4
 6005670:	87 30 60 10 	srl  %g1, 0x10, %g3
 6005674:	85 30 60 08 	srl  %g1, 8, %g2
 6005678:	c2 2b 20 0b 	stb  %g1, [ %o4 + 0xb ]
 600567c:	d2 2b 20 0c 	stb  %o1, [ %o4 + 0xc ]
 6005680:	d6 2b 20 0d 	stb  %o3, [ %o4 + 0xd ]
 6005684:	da 2b 20 0e 	stb  %o5, [ %o4 + 0xe ]
 6005688:	c8 2b 20 08 	stb  %g4, [ %o4 + 8 ]
 600568c:	c6 2b 20 09 	stb  %g3, [ %o4 + 9 ]
 6005690:	c4 2b 20 0a 	stb  %g2, [ %o4 + 0xa ]
 6005694:	d4 2b 20 0f 	stb  %o2, [ %o4 + 0xf ]
 6005698:	80 a2 a0 40 	cmp  %o2, 0x40
 600569c:	08 80 00 20 	bleu  600571c <usb_cep_sent+0x1e0>
 60056a0:	82 10 20 01 	mov  1, %g1
 60056a4:	c2 2b 20 1e 	stb  %g1, [ %o4 + 0x1e ]
 60056a8:	81 c7 e0 08 	ret 
 60056ac:	81 e8 00 00 	restore 
 60056b0:	c2 00 e0 34 	ld  [ %g3 + 0x34 ], %g1
 60056b4:	80 88 60 20 	btst  0x20, %g1
 60056b8:	12 bf ff dd 	bne  600562c <usb_cep_sent+0xf0>
 60056bc:	80 a2 a0 40 	cmp  %o2, 0x40
 60056c0:	c2 00 e0 34 	ld  [ %g3 + 0x34 ], %g1
 60056c4:	80 88 60 20 	btst  0x20, %g1
 60056c8:	02 bf ff fa 	be  60056b0 <usb_cep_sent+0x174>
 60056cc:	80 a2 a0 40 	cmp  %o2, 0x40
 60056d0:	30 bf ff d7 	b,a   600562c <usb_cep_sent+0xf0>
 60056d4:	10 bf ff b5 	b  60055a8 <usb_cep_sent+0x6c>
 60056d8:	92 10 20 40 	mov  0x40, %o1
 60056dc:	c0 2b 20 0b 	clrb  [ %o4 + 0xb ]
 60056e0:	c0 2b 20 0c 	clrb  [ %o4 + 0xc ]
 60056e4:	c0 2b 20 0d 	clrb  [ %o4 + 0xd ]
 60056e8:	c0 2b 20 0e 	clrb  [ %o4 + 0xe ]
 60056ec:	c0 2b 20 0f 	clrb  [ %o4 + 0xf ]
 60056f0:	c0 2b 20 08 	clrb  [ %o4 + 8 ]
 60056f4:	c0 2b 20 09 	clrb  [ %o4 + 9 ]
 60056f8:	c0 2b 20 0a 	clrb  [ %o4 + 0xa ]
 60056fc:	81 c7 e0 08 	ret 
 6005700:	81 e8 00 00 	restore 
 6005704:	03 03 40 02 	sethi  %hi(0xd000800), %g1
 6005708:	c2 00 61 5c 	ld  [ %g1 + 0x15c ], %g1	! d00095c <pUsbDevReg>
 600570c:	84 10 20 04 	mov  4, %g2
 6005710:	c4 20 60 2c 	st  %g2, [ %g1 + 0x2c ]
 6005714:	81 c7 e0 08 	ret 
 6005718:	81 e8 00 00 	restore 
 600571c:	82 10 20 00 	clr  %g1
 6005720:	c2 2b 20 1e 	stb  %g1, [ %o4 + 0x1e ]
 6005724:	81 c7 e0 08 	ret 
 6005728:	81 e8 00 00 	restore 

0600572c <usb_cep_get_status>:
 600572c:	05 03 40 00 	sethi  %hi(0xd000000), %g2
 6005730:	82 10 a0 98 	or  %g2, 0x98, %g1	! d000098 <cep>
 6005734:	c6 08 60 07 	ldub  [ %g1 + 7 ], %g3
 6005738:	c8 08 60 06 	ldub  [ %g1 + 6 ], %g4
 600573c:	87 28 e0 08 	sll  %g3, 8, %g3
 6005740:	86 11 00 03 	or  %g4, %g3, %g3
 6005744:	80 a0 e0 02 	cmp  %g3, 2
 6005748:	02 80 00 05 	be  600575c <usb_cep_get_status+0x30>
 600574c:	c6 08 a0 98 	ldub  [ %g2 + 0x98 ], %g3
 6005750:	84 10 20 01 	mov  1, %g2
 6005754:	81 c3 e0 08 	retl 
 6005758:	c4 28 60 1a 	stb  %g2, [ %g1 + 0x1a ]
 600575c:	c8 08 60 03 	ldub  [ %g1 + 3 ], %g4
 6005760:	80 a1 20 00 	cmp  %g4, 0
 6005764:	32 bf ff fc 	bne,a   6005754 <usb_cep_get_status+0x28>
 6005768:	84 10 20 01 	mov  1, %g2
 600576c:	c8 08 60 02 	ldub  [ %g1 + 2 ], %g4
 6005770:	80 a1 20 00 	cmp  %g4, 0
 6005774:	32 bf ff f8 	bne,a   6005754 <usb_cep_get_status+0x28>
 6005778:	84 10 20 01 	mov  1, %g2
 600577c:	c0 28 a0 98 	clrb  [ %g2 + 0x98 ]
 6005780:	86 88 e0 1f 	andcc  %g3, 0x1f, %g3
 6005784:	12 80 00 10 	bne  60057c4 <usb_cep_get_status+0x98>
 6005788:	c0 28 60 01 	clrb  [ %g1 + 1 ]
 600578c:	c6 08 60 1b 	ldub  [ %g1 + 0x1b ], %g3
 6005790:	80 a0 e0 01 	cmp  %g3, 1
 6005794:	02 80 00 0a 	be  60057bc <usb_cep_get_status+0x90>
 6005798:	86 10 20 03 	mov  3, %g3
 600579c:	86 10 20 01 	mov  1, %g3
 60057a0:	c6 28 a0 98 	stb  %g3, [ %g2 + 0x98 ]
 60057a4:	84 10 20 02 	mov  2, %g2
 60057a8:	c0 28 60 0c 	clrb  [ %g1 + 0xc ]
 60057ac:	c0 28 60 0d 	clrb  [ %g1 + 0xd ]
 60057b0:	c4 28 60 0f 	stb  %g2, [ %g1 + 0xf ]
 60057b4:	81 c3 e0 08 	retl 
 60057b8:	c0 28 60 0e 	clrb  [ %g1 + 0xe ]
 60057bc:	10 bf ff fa 	b  60057a4 <usb_cep_get_status+0x78>
 60057c0:	c6 28 a0 98 	stb  %g3, [ %g2 + 0x98 ]
 60057c4:	80 a0 e0 02 	cmp  %g3, 2
 60057c8:	22 bf ff f6 	be,a   60057a0 <usb_cep_get_status+0x74>
 60057cc:	86 10 20 01 	mov  1, %g3
 60057d0:	84 10 20 02 	mov  2, %g2
 60057d4:	c0 28 60 0c 	clrb  [ %g1 + 0xc ]
 60057d8:	c0 28 60 0d 	clrb  [ %g1 + 0xd ]
 60057dc:	c4 28 60 0f 	stb  %g2, [ %g1 + 0xf ]
 60057e0:	81 c3 e0 08 	retl 
 60057e4:	c0 28 60 0e 	clrb  [ %g1 + 0xe ]

060057e8 <usb_cep_clear_feature>:
 60057e8:	05 03 40 00 	sethi  %hi(0xd000000), %g2
 60057ec:	82 10 a0 98 	or  %g2, 0x98, %g1	! d000098 <cep>
 60057f0:	c6 08 60 03 	ldub  [ %g1 + 3 ], %g3
 60057f4:	c8 08 60 02 	ldub  [ %g1 + 2 ], %g4
 60057f8:	87 28 e0 08 	sll  %g3, 8, %g3
 60057fc:	86 11 00 03 	or  %g4, %g3, %g3
 6005800:	80 a0 e0 01 	cmp  %g3, 1
 6005804:	22 80 00 07 	be,a   6005820 <usb_cep_clear_feature+0x38>
 6005808:	c4 08 a0 98 	ldub  [ %g2 + 0x98 ], %g2
 600580c:	c0 28 60 0f 	clrb  [ %g1 + 0xf ]
 6005810:	c0 28 60 0c 	clrb  [ %g1 + 0xc ]
 6005814:	c0 28 60 0d 	clrb  [ %g1 + 0xd ]
 6005818:	81 c3 e0 08 	retl 
 600581c:	c0 28 60 0e 	clrb  [ %g1 + 0xe ]
 6005820:	80 88 a0 1f 	btst  0x1f, %g2
 6005824:	32 bf ff fb 	bne,a   6005810 <usb_cep_clear_feature+0x28>
 6005828:	c0 28 60 0f 	clrb  [ %g1 + 0xf ]
 600582c:	c0 28 60 1b 	clrb  [ %g1 + 0x1b ]
 6005830:	c0 28 60 0f 	clrb  [ %g1 + 0xf ]
 6005834:	c0 28 60 0c 	clrb  [ %g1 + 0xc ]
 6005838:	c0 28 60 0d 	clrb  [ %g1 + 0xd ]
 600583c:	81 c3 e0 08 	retl 
 6005840:	c0 28 60 0e 	clrb  [ %g1 + 0xe ]

06005844 <usb_cep_set_feature>:
 6005844:	03 03 40 00 	sethi  %hi(0xd000000), %g1
 6005848:	05 03 40 02 	sethi  %hi(0xd000800), %g2
 600584c:	82 10 60 98 	or  %g1, 0x98, %g1
 6005850:	c4 00 a1 5c 	ld  [ %g2 + 0x15c ], %g2
 6005854:	07 03 40 02 	sethi  %hi(0xd000800), %g3
 6005858:	c8 08 60 05 	ldub  [ %g1 + 5 ], %g4
 600585c:	c0 28 60 0f 	clrb  [ %g1 + 0xf ]
 6005860:	88 09 20 0f 	and  %g4, 0xf, %g4
 6005864:	c0 28 60 0c 	clrb  [ %g1 + 0xc ]
 6005868:	c8 20 e1 50 	st  %g4, [ %g3 + 0x150 ]
 600586c:	c0 28 60 0d 	clrb  [ %g1 + 0xd ]
 6005870:	c0 28 60 0e 	clrb  [ %g1 + 0xe ]
 6005874:	c0 20 a0 2c 	clr  [ %g2 + 0x2c ]
 6005878:	81 c3 e0 08 	retl 
 600587c:	01 00 00 00 	nop 

06005880 <usb_cep_set_address>:
 6005880:	9d e3 bf a0 	save  %sp, -96, %sp
 6005884:	03 03 40 00 	sethi  %hi(0xd000000), %g1
 6005888:	82 10 60 98 	or  %g1, 0x98, %g1	! d000098 <cep>
 600588c:	c4 08 60 03 	ldub  [ %g1 + 3 ], %g2
 6005890:	80 a0 a0 00 	cmp  %g2, 0
 6005894:	12 80 00 21 	bne  6005918 <usb_cep_set_address+0x98>
 6005898:	84 10 20 01 	mov  1, %g2
 600589c:	c4 48 60 02 	ldsb  [ %g1 + 2 ], %g2
 60058a0:	80 a0 a0 00 	cmp  %g2, 0
 60058a4:	06 80 00 1c 	bl  6005914 <usb_cep_set_address+0x94>
 60058a8:	d8 08 60 02 	ldub  [ %g1 + 2 ], %o4
 60058ac:	da 08 60 10 	ldub  [ %g1 + 0x10 ], %o5
 60058b0:	c8 08 60 11 	ldub  [ %g1 + 0x11 ], %g4
 60058b4:	c4 08 60 12 	ldub  [ %g1 + 0x12 ], %g2
 60058b8:	c6 08 60 13 	ldub  [ %g1 + 0x13 ], %g3
 60058bc:	9b 2b 60 18 	sll  %o5, 0x18, %o5
 60058c0:	89 29 20 10 	sll  %g4, 0x10, %g4
 60058c4:	85 28 a0 08 	sll  %g2, 8, %g2
 60058c8:	88 11 00 0d 	or  %g4, %o5, %g4
 60058cc:	84 10 80 04 	or  %g2, %g4, %g2
 60058d0:	84 10 c0 02 	or  %g3, %g2, %g2
 60058d4:	80 a0 a0 06 	cmp  %g2, 6
 60058d8:	02 80 00 0f 	be  6005914 <usb_cep_set_address+0x94>
 60058dc:	80 a0 a0 05 	cmp  %g2, 5
 60058e0:	02 80 00 11 	be  6005924 <usb_cep_set_address+0xa4>
 60058e4:	80 a0 a0 04 	cmp  %g2, 4
 60058e8:	02 80 00 18 	be  6005948 <usb_cep_set_address+0xc8>
 60058ec:	80 a0 00 0c 	cmp  %g0, %o4
 60058f0:	05 03 40 02 	sethi  %hi(0xd000800), %g2
 60058f4:	c4 00 a1 5c 	ld  [ %g2 + 0x15c ], %g2	! d00095c <pUsbDevReg>
 60058f8:	c0 28 60 0f 	clrb  [ %g1 + 0xf ]
 60058fc:	c0 28 60 0c 	clrb  [ %g1 + 0xc ]
 6005900:	c0 28 60 0d 	clrb  [ %g1 + 0xd ]
 6005904:	c0 28 60 0e 	clrb  [ %g1 + 0xe ]
 6005908:	c0 20 a0 2c 	clr  [ %g2 + 0x2c ]
 600590c:	81 c7 e0 08 	ret 
 6005910:	81 e8 00 00 	restore 
 6005914:	84 10 20 01 	mov  1, %g2
 6005918:	c4 28 60 18 	stb  %g2, [ %g1 + 0x18 ]
 600591c:	81 c7 e0 08 	ret 
 6005920:	81 e8 00 00 	restore 
 6005924:	80 a3 20 00 	cmp  %o4, 0
 6005928:	12 bf ff f3 	bne  60058f4 <usb_cep_set_address+0x74>
 600592c:	05 03 40 02 	sethi  %hi(0xd000800), %g2
 6005930:	84 10 20 04 	mov  4, %g2
 6005934:	c0 28 60 14 	clrb  [ %g1 + 0x14 ]
 6005938:	c0 28 60 15 	clrb  [ %g1 + 0x15 ]
 600593c:	c4 28 60 17 	stb  %g2, [ %g1 + 0x17 ]
 6005940:	10 bf ff ec 	b  60058f0 <usb_cep_set_address+0x70>
 6005944:	c0 28 60 16 	clrb  [ %g1 + 0x16 ]
 6005948:	84 10 20 05 	mov  5, %g2
 600594c:	84 40 bf ff 	addx  %g2, -1, %g2
 6005950:	9b 30 a0 18 	srl  %g2, 0x18, %o5
 6005954:	c4 28 60 17 	stb  %g2, [ %g1 + 0x17 ]
 6005958:	da 28 60 14 	stb  %o5, [ %g1 + 0x14 ]
 600595c:	da 28 60 15 	stb  %o5, [ %g1 + 0x15 ]
 6005960:	10 bf ff e4 	b  60058f0 <usb_cep_set_address+0x70>
 6005964:	da 28 60 16 	stb  %o5, [ %g1 + 0x16 ]

06005968 <usb_cep_get_descriptor>:
 6005968:	9d e3 bf a0 	save  %sp, -96, %sp
 600596c:	03 03 40 00 	sethi  %hi(0xd000000), %g1
 6005970:	82 10 60 98 	or  %g1, 0x98, %g1	! d000098 <cep>
 6005974:	c4 08 60 03 	ldub  [ %g1 + 3 ], %g2
 6005978:	80 a0 a0 0a 	cmp  %g2, 0xa
 600597c:	18 80 00 0c 	bgu  60059ac <usb_cep_get_descriptor+0x44>
 6005980:	c0 28 60 1e 	clrb  [ %g1 + 0x1e ]
 6005984:	85 28 a0 02 	sll  %g2, 2, %g2
 6005988:	07 01 80 14 	sethi  %hi(0x6005000), %g3
 600598c:	86 10 e0 04 	or  %g3, 4, %g3	! 6005004 <nandFlashWrite+0x90>
 6005990:	c4 00 c0 02 	ld  [ %g3 + %g2 ], %g2
 6005994:	81 c0 80 00 	jmp  %g2
 6005998:	01 00 00 00 	nop 
 600599c:	c0 28 60 0f 	clrb  [ %g1 + 0xf ]
 60059a0:	c0 28 60 0c 	clrb  [ %g1 + 0xc ]
 60059a4:	c0 28 60 0d 	clrb  [ %g1 + 0xd ]
 60059a8:	c0 28 60 0e 	clrb  [ %g1 + 0xe ]
 60059ac:	81 c7 e0 08 	ret 
 60059b0:	81 e8 00 00 	restore 
 60059b4:	05 01 80 1c 	sethi  %hi(0x6007000), %g2
 60059b8:	84 10 a3 a8 	or  %g2, 0x3a8, %g2	! 60073a8 <usb_data_desc_device>
 60059bc:	9b 30 a0 18 	srl  %g2, 0x18, %o5
 60059c0:	89 30 a0 10 	srl  %g2, 0x10, %g4
 60059c4:	87 30 a0 08 	srl  %g2, 8, %g3
 60059c8:	c4 28 60 0b 	stb  %g2, [ %g1 + 0xb ]
 60059cc:	da 28 60 08 	stb  %o5, [ %g1 + 8 ]
 60059d0:	c4 08 60 06 	ldub  [ %g1 + 6 ], %g2
 60059d4:	c8 28 60 09 	stb  %g4, [ %g1 + 9 ]
 60059d8:	80 a0 a0 12 	cmp  %g2, 0x12
 60059dc:	08 80 00 03 	bleu  60059e8 <usb_cep_get_descriptor+0x80>
 60059e0:	c6 28 60 0a 	stb  %g3, [ %g1 + 0xa ]
 60059e4:	84 10 20 12 	mov  0x12, %g2
 60059e8:	c4 28 60 0f 	stb  %g2, [ %g1 + 0xf ]
 60059ec:	c0 28 60 0c 	clrb  [ %g1 + 0xc ]
 60059f0:	c0 28 60 0d 	clrb  [ %g1 + 0xd ]
 60059f4:	c0 28 60 0e 	clrb  [ %g1 + 0xe ]
 60059f8:	81 c7 e0 08 	ret 
 60059fc:	81 e8 00 00 	restore 
 6005a00:	05 01 80 1c 	sethi  %hi(0x6007000), %g2
 6005a04:	84 10 a3 c0 	or  %g2, 0x3c0, %g2	! 60073c0 <usb_data_desc_config>
 6005a08:	9b 30 a0 18 	srl  %g2, 0x18, %o5
 6005a0c:	89 30 a0 10 	srl  %g2, 0x10, %g4
 6005a10:	87 30 a0 08 	srl  %g2, 8, %g3
 6005a14:	c4 28 60 0b 	stb  %g2, [ %g1 + 0xb ]
 6005a18:	da 28 60 08 	stb  %o5, [ %g1 + 8 ]
 6005a1c:	c4 08 60 06 	ldub  [ %g1 + 6 ], %g2
 6005a20:	c8 28 60 09 	stb  %g4, [ %g1 + 9 ]
 6005a24:	80 a0 a0 20 	cmp  %g2, 0x20
 6005a28:	08 bf ff f0 	bleu  60059e8 <usb_cep_get_descriptor+0x80>
 6005a2c:	c6 28 60 0a 	stb  %g3, [ %g1 + 0xa ]
 6005a30:	84 10 20 20 	mov  0x20, %g2
 6005a34:	c0 28 60 0c 	clrb  [ %g1 + 0xc ]
 6005a38:	c0 28 60 0d 	clrb  [ %g1 + 0xd ]
 6005a3c:	c4 28 60 0f 	stb  %g2, [ %g1 + 0xf ]
 6005a40:	c0 28 60 0e 	clrb  [ %g1 + 0xe ]
 6005a44:	81 c7 e0 08 	ret 
 6005a48:	81 e8 00 00 	restore 
 6005a4c:	c4 08 60 02 	ldub  [ %g1 + 2 ], %g2
 6005a50:	80 a0 a0 01 	cmp  %g2, 1
 6005a54:	22 80 00 29 	be,a   6005af8 <usb_cep_get_descriptor+0x190>
 6005a58:	05 01 80 1c 	sethi  %hi(0x6007000), %g2
 6005a5c:	1a 80 00 1e 	bcc  6005ad4 <usb_cep_get_descriptor+0x16c>
 6005a60:	80 a0 a0 02 	cmp  %g2, 2
 6005a64:	05 01 80 1c 	sethi  %hi(0x6007000), %g2
 6005a68:	84 10 a3 e0 	or  %g2, 0x3e0, %g2	! 60073e0 <usb_data_desc_string0>
 6005a6c:	9b 30 a0 18 	srl  %g2, 0x18, %o5
 6005a70:	89 30 a0 10 	srl  %g2, 0x10, %g4
 6005a74:	87 30 a0 08 	srl  %g2, 8, %g3
 6005a78:	c4 28 60 0b 	stb  %g2, [ %g1 + 0xb ]
 6005a7c:	da 28 60 08 	stb  %o5, [ %g1 + 8 ]
 6005a80:	c4 08 60 06 	ldub  [ %g1 + 6 ], %g2
 6005a84:	c8 28 60 09 	stb  %g4, [ %g1 + 9 ]
 6005a88:	80 a0 a0 04 	cmp  %g2, 4
 6005a8c:	08 bf ff d7 	bleu  60059e8 <usb_cep_get_descriptor+0x80>
 6005a90:	c6 28 60 0a 	stb  %g3, [ %g1 + 0xa ]
 6005a94:	10 bf ff d5 	b  60059e8 <usb_cep_get_descriptor+0x80>
 6005a98:	84 10 20 04 	mov  4, %g2
 6005a9c:	05 01 80 1d 	sethi  %hi(0x6007400), %g2
 6005aa0:	84 10 a0 48 	or  %g2, 0x48, %g2	! 6007448 <usb_data_desc_qualifier>
 6005aa4:	9b 30 a0 18 	srl  %g2, 0x18, %o5
 6005aa8:	89 30 a0 10 	srl  %g2, 0x10, %g4
 6005aac:	87 30 a0 08 	srl  %g2, 8, %g3
 6005ab0:	c4 28 60 0b 	stb  %g2, [ %g1 + 0xb ]
 6005ab4:	da 28 60 08 	stb  %o5, [ %g1 + 8 ]
 6005ab8:	c4 08 60 06 	ldub  [ %g1 + 6 ], %g2
 6005abc:	c8 28 60 09 	stb  %g4, [ %g1 + 9 ]
 6005ac0:	80 a0 a0 0a 	cmp  %g2, 0xa
 6005ac4:	08 bf ff c9 	bleu  60059e8 <usb_cep_get_descriptor+0x80>
 6005ac8:	c6 28 60 0a 	stb  %g3, [ %g1 + 0xa ]
 6005acc:	10 bf ff c7 	b  60059e8 <usb_cep_get_descriptor+0x80>
 6005ad0:	84 10 20 0a 	mov  0xa, %g2
 6005ad4:	02 80 00 06 	be  6005aec <usb_cep_get_descriptor+0x184>
 6005ad8:	80 a0 a0 03 	cmp  %g2, 3
 6005adc:	12 bf ff b4 	bne  60059ac <usb_cep_get_descriptor+0x44>
 6005ae0:	05 01 80 1d 	sethi  %hi(0x6007400), %g2
 6005ae4:	10 bf ff c9 	b  6005a08 <usb_cep_get_descriptor+0xa0>
 6005ae8:	84 10 a0 28 	or  %g2, 0x28, %g2	! 6007428 <usb_data_desc_string3>
 6005aec:	05 01 80 1d 	sethi  %hi(0x6007400), %g2
 6005af0:	10 bf ff c6 	b  6005a08 <usb_cep_get_descriptor+0xa0>
 6005af4:	84 10 a0 08 	or  %g2, 8, %g2	! 6007408 <usb_data_desc_string2>
 6005af8:	10 bf ff c4 	b  6005a08 <usb_cep_get_descriptor+0xa0>
 6005afc:	84 10 a3 e8 	or  %g2, 0x3e8, %g2

06005b00 <usb_cep_setup>:
 6005b00:	9d e3 bf a0 	save  %sp, -96, %sp
 6005b04:	21 03 40 02 	sethi  %hi(0xd000800), %l0
 6005b08:	d4 04 21 5c 	ld  [ %l0 + 0x15c ], %o2	! d00095c <pUsbDevReg>
 6005b0c:	13 03 40 00 	sethi  %hi(0xd000000), %o1
 6005b10:	96 02 a0 44 	add  %o2, 0x44, %o3
 6005b14:	88 12 60 98 	or  %o1, 0x98, %g4
 6005b18:	82 10 20 00 	clr  %g1
 6005b1c:	84 10 00 04 	mov  %g4, %g2
 6005b20:	87 30 60 01 	srl  %g1, 1, %g3
 6005b24:	87 28 e0 02 	sll  %g3, 2, %g3
 6005b28:	c6 02 c0 03 	ld  [ %o3 + %g3 ], %g3
 6005b2c:	9a 01 00 01 	add  %g4, %g1, %o5
 6005b30:	99 30 e0 08 	srl  %g3, 8, %o4
 6005b34:	c6 29 00 01 	stb  %g3, [ %g4 + %g1 ]
 6005b38:	82 00 60 02 	add  %g1, 2, %g1
 6005b3c:	80 a0 60 08 	cmp  %g1, 8
 6005b40:	12 bf ff f8 	bne  6005b20 <usb_cep_setup+0x20>
 6005b44:	d8 2b 60 01 	stb  %o4, [ %o5 + 1 ]
 6005b48:	83 30 a0 08 	srl  %g2, 8, %g1
 6005b4c:	9b 30 a0 18 	srl  %g2, 0x18, %o5
 6005b50:	87 30 a0 10 	srl  %g2, 0x10, %g3
 6005b54:	c2 28 a0 0a 	stb  %g1, [ %g2 + 0xa ]
 6005b58:	da 28 a0 08 	stb  %o5, [ %g2 + 8 ]
 6005b5c:	c2 08 a0 01 	ldub  [ %g2 + 1 ], %g1
 6005b60:	c6 28 a0 09 	stb  %g3, [ %g2 + 9 ]
 6005b64:	c4 28 a0 0b 	stb  %g2, [ %g2 + 0xb ]
 6005b68:	c0 28 a0 0c 	clrb  [ %g2 + 0xc ]
 6005b6c:	c0 28 a0 0d 	clrb  [ %g2 + 0xd ]
 6005b70:	c0 28 a0 0e 	clrb  [ %g2 + 0xe ]
 6005b74:	80 a0 60 08 	cmp  %g1, 8
 6005b78:	02 80 00 96 	be  6005dd0 <usb_cep_setup+0x2d0>
 6005b7c:	c0 28 a0 0f 	clrb  [ %g2 + 0xf ]
 6005b80:	80 a0 60 08 	cmp  %g1, 8
 6005b84:	08 80 00 0f 	bleu  6005bc0 <usb_cep_setup+0xc0>
 6005b88:	80 a0 60 03 	cmp  %g1, 3
 6005b8c:	80 a0 60 0b 	cmp  %g1, 0xb
 6005b90:	22 80 00 71 	be,a   6005d54 <usb_cep_setup+0x254>
 6005b94:	d8 08 a0 10 	ldub  [ %g2 + 0x10 ], %o4
 6005b98:	18 80 00 17 	bgu  6005bf4 <usb_cep_setup+0xf4>
 6005b9c:	80 a0 60 fe 	cmp  %g1, 0xfe
 6005ba0:	80 a0 60 09 	cmp  %g1, 9
 6005ba4:	02 80 00 50 	be  6005ce4 <usb_cep_setup+0x1e4>
 6005ba8:	80 a0 60 0a 	cmp  %g1, 0xa
 6005bac:	22 80 00 39 	be,a   6005c90 <usb_cep_setup+0x190>
 6005bb0:	c6 08 a0 13 	ldub  [ %g2 + 0x13 ], %g3
 6005bb4:	c0 22 a0 2c 	clr  [ %o2 + 0x2c ]
 6005bb8:	81 c7 e0 08 	ret 
 6005bbc:	81 e8 00 00 	restore 
 6005bc0:	02 80 00 7a 	be  6005da8 <usb_cep_setup+0x2a8>
 6005bc4:	80 a0 60 03 	cmp  %g1, 3
 6005bc8:	08 80 00 15 	bleu  6005c1c <usb_cep_setup+0x11c>
 6005bcc:	80 a0 60 00 	cmp  %g1, 0
 6005bd0:	80 a0 60 05 	cmp  %g1, 5
 6005bd4:	02 80 00 5c 	be  6005d44 <usb_cep_setup+0x244>
 6005bd8:	80 a0 60 06 	cmp  %g1, 6
 6005bdc:	12 bf ff f6 	bne  6005bb4 <usb_cep_setup+0xb4>
 6005be0:	01 00 00 00 	nop 
 6005be4:	7f ff ff 61 	call  6005968 <usb_cep_get_descriptor>
 6005be8:	01 00 00 00 	nop 
 6005bec:	10 bf ff f2 	b  6005bb4 <usb_cep_setup+0xb4>
 6005bf0:	d4 04 21 5c 	ld  [ %l0 + 0x15c ], %o2
 6005bf4:	02 80 00 1c 	be  6005c64 <usb_cep_setup+0x164>
 6005bf8:	80 a0 60 ff 	cmp  %g1, 0xff
 6005bfc:	12 bf ff ee 	bne  6005bb4 <usb_cep_setup+0xb4>
 6005c00:	01 00 00 00 	nop 
 6005c04:	c0 28 a0 0f 	clrb  [ %g2 + 0xf ]
 6005c08:	c0 28 a0 0c 	clrb  [ %g2 + 0xc ]
 6005c0c:	c0 28 a0 0d 	clrb  [ %g2 + 0xd ]
 6005c10:	c0 28 a0 0e 	clrb  [ %g2 + 0xe ]
 6005c14:	c0 22 a0 34 	clr  [ %o2 + 0x34 ]
 6005c18:	30 bf ff e7 	b,a   6005bb4 <usb_cep_setup+0xb4>
 6005c1c:	02 80 00 19 	be  6005c80 <usb_cep_setup+0x180>
 6005c20:	80 a0 60 01 	cmp  %g1, 1
 6005c24:	12 bf ff e4 	bne  6005bb4 <usb_cep_setup+0xb4>
 6005c28:	01 00 00 00 	nop 
 6005c2c:	c2 08 a0 03 	ldub  [ %g2 + 3 ], %g1
 6005c30:	c6 08 a0 02 	ldub  [ %g2 + 2 ], %g3
 6005c34:	83 28 60 08 	sll  %g1, 8, %g1
 6005c38:	82 10 c0 01 	or  %g3, %g1, %g1
 6005c3c:	80 a0 60 01 	cmp  %g1, 1
 6005c40:	22 80 00 8e 	be,a   6005e78 <usb_cep_setup+0x378>
 6005c44:	c2 08 80 00 	ldub  [ %g2 ], %g1
 6005c48:	c0 29 20 0f 	clrb  [ %g4 + 0xf ]
 6005c4c:	c0 29 20 0c 	clrb  [ %g4 + 0xc ]
 6005c50:	c0 29 20 0d 	clrb  [ %g4 + 0xd ]
 6005c54:	c0 29 20 0e 	clrb  [ %g4 + 0xe ]
 6005c58:	c0 22 a0 2c 	clr  [ %o2 + 0x2c ]
 6005c5c:	81 c7 e0 08 	ret 
 6005c60:	81 e8 00 00 	restore 
 6005c64:	82 10 20 01 	mov  1, %g1
 6005c68:	c0 28 80 00 	clrb  [ %g2 ]
 6005c6c:	c0 28 a0 0c 	clrb  [ %g2 + 0xc ]
 6005c70:	c2 28 a0 0f 	stb  %g1, [ %g2 + 0xf ]
 6005c74:	c0 28 a0 0d 	clrb  [ %g2 + 0xd ]
 6005c78:	10 bf ff cf 	b  6005bb4 <usb_cep_setup+0xb4>
 6005c7c:	c0 28 a0 0e 	clrb  [ %g2 + 0xe ]
 6005c80:	7f ff fe ab 	call  600572c <usb_cep_get_status>
 6005c84:	01 00 00 00 	nop 
 6005c88:	10 bf ff cb 	b  6005bb4 <usb_cep_setup+0xb4>
 6005c8c:	d4 04 21 5c 	ld  [ %l0 + 0x15c ], %o2
 6005c90:	d8 08 a0 10 	ldub  [ %g2 + 0x10 ], %o4
 6005c94:	da 08 a0 11 	ldub  [ %g2 + 0x11 ], %o5
 6005c98:	c2 08 a0 12 	ldub  [ %g2 + 0x12 ], %g1
 6005c9c:	99 2b 20 18 	sll  %o4, 0x18, %o4
 6005ca0:	9b 2b 60 10 	sll  %o5, 0x10, %o5
 6005ca4:	83 28 60 08 	sll  %g1, 8, %g1
 6005ca8:	9a 13 40 0c 	or  %o5, %o4, %o5
 6005cac:	82 10 40 0d 	or  %g1, %o5, %g1
 6005cb0:	82 10 c0 01 	or  %g3, %g1, %g1
 6005cb4:	86 00 7f fc 	add  %g1, -4, %g3
 6005cb8:	80 a0 e0 01 	cmp  %g3, 1
 6005cbc:	08 80 00 6c 	bleu  6005e6c <usb_cep_setup+0x36c>
 6005cc0:	80 a0 60 06 	cmp  %g1, 6
 6005cc4:	02 80 00 63 	be  6005e50 <usb_cep_setup+0x350>
 6005cc8:	82 10 20 01 	mov  1, %g1
 6005ccc:	c2 08 80 00 	ldub  [ %g2 ], %g1
 6005cd0:	80 a0 60 21 	cmp  %g1, 0x21
 6005cd4:	12 bf ff b8 	bne  6005bb4 <usb_cep_setup+0xb4>
 6005cd8:	01 00 00 00 	nop 
 6005cdc:	10 bf ff db 	b  6005c48 <usb_cep_setup+0x148>
 6005ce0:	c0 2a 60 98 	clrb  [ %o1 + 0x98 ]
 6005ce4:	d8 08 a0 10 	ldub  [ %g2 + 0x10 ], %o4
 6005ce8:	da 08 a0 11 	ldub  [ %g2 + 0x11 ], %o5
 6005cec:	c2 08 a0 12 	ldub  [ %g2 + 0x12 ], %g1
 6005cf0:	c6 08 a0 13 	ldub  [ %g2 + 0x13 ], %g3
 6005cf4:	99 2b 20 18 	sll  %o4, 0x18, %o4
 6005cf8:	9b 2b 60 10 	sll  %o5, 0x10, %o5
 6005cfc:	83 28 60 08 	sll  %g1, 8, %g1
 6005d00:	9a 13 40 0c 	or  %o5, %o4, %o5
 6005d04:	82 10 40 0d 	or  %g1, %o5, %g1
 6005d08:	82 10 c0 01 	or  %g3, %g1, %g1
 6005d0c:	80 a0 60 04 	cmp  %g1, 4
 6005d10:	02 80 00 58 	be  6005e70 <usb_cep_setup+0x370>
 6005d14:	82 10 20 01 	mov  1, %g1
 6005d18:	c2 08 a0 02 	ldub  [ %g2 + 2 ], %g1
 6005d1c:	80 a0 60 00 	cmp  %g1, 0
 6005d20:	12 80 00 45 	bne  6005e34 <usb_cep_setup+0x334>
 6005d24:	82 10 20 06 	mov  6, %g1
 6005d28:	82 10 20 05 	mov  5, %g1
 6005d2c:	c0 28 a0 1d 	clrb  [ %g2 + 0x1d ]
 6005d30:	c0 28 a0 14 	clrb  [ %g2 + 0x14 ]
 6005d34:	c2 28 a0 17 	stb  %g1, [ %g2 + 0x17 ]
 6005d38:	c0 28 a0 15 	clrb  [ %g2 + 0x15 ]
 6005d3c:	10 80 00 13 	b  6005d88 <usb_cep_setup+0x288>
 6005d40:	c0 28 a0 16 	clrb  [ %g2 + 0x16 ]
 6005d44:	7f ff fe cf 	call  6005880 <usb_cep_set_address>
 6005d48:	01 00 00 00 	nop 
 6005d4c:	10 bf ff 9a 	b  6005bb4 <usb_cep_setup+0xb4>
 6005d50:	d4 04 21 5c 	ld  [ %l0 + 0x15c ], %o2
 6005d54:	da 08 a0 11 	ldub  [ %g2 + 0x11 ], %o5
 6005d58:	c2 08 a0 12 	ldub  [ %g2 + 0x12 ], %g1
 6005d5c:	c6 08 a0 13 	ldub  [ %g2 + 0x13 ], %g3
 6005d60:	99 2b 20 18 	sll  %o4, 0x18, %o4
 6005d64:	9b 2b 60 10 	sll  %o5, 0x10, %o5
 6005d68:	83 28 60 08 	sll  %g1, 8, %g1
 6005d6c:	9a 13 40 0c 	or  %o5, %o4, %o5
 6005d70:	82 10 40 0d 	or  %g1, %o5, %g1
 6005d74:	82 10 c0 01 	or  %g3, %g1, %g1
 6005d78:	80 a0 60 06 	cmp  %g1, 6
 6005d7c:	02 80 00 03 	be  6005d88 <usb_cep_setup+0x288>
 6005d80:	82 10 20 01 	mov  1, %g1
 6005d84:	c2 28 a0 1a 	stb  %g1, [ %g2 + 0x1a ]
 6005d88:	c0 29 20 0f 	clrb  [ %g4 + 0xf ]
 6005d8c:	c0 29 20 0c 	clrb  [ %g4 + 0xc ]
 6005d90:	c0 29 20 0d 	clrb  [ %g4 + 0xd ]
 6005d94:	c0 29 20 0e 	clrb  [ %g4 + 0xe ]
 6005d98:	c0 22 a0 34 	clr  [ %o2 + 0x34 ]
 6005d9c:	c0 22 a0 2c 	clr  [ %o2 + 0x2c ]
 6005da0:	81 c7 e0 08 	ret 
 6005da4:	81 e8 00 00 	restore 
 6005da8:	03 03 40 02 	sethi  %hi(0xd000800), %g1
 6005dac:	c6 08 a0 05 	ldub  [ %g2 + 5 ], %g3
 6005db0:	c0 28 a0 0f 	clrb  [ %g2 + 0xf ]
 6005db4:	86 08 e0 0f 	and  %g3, 0xf, %g3
 6005db8:	c6 20 61 50 	st  %g3, [ %g1 + 0x150 ]
 6005dbc:	c0 28 a0 0c 	clrb  [ %g2 + 0xc ]
 6005dc0:	c0 28 a0 0d 	clrb  [ %g2 + 0xd ]
 6005dc4:	c0 28 a0 0e 	clrb  [ %g2 + 0xe ]
 6005dc8:	c0 22 a0 2c 	clr  [ %o2 + 0x2c ]
 6005dcc:	30 bf ff 7a 	b,a   6005bb4 <usb_cep_setup+0xb4>
 6005dd0:	da 08 a0 10 	ldub  [ %g2 + 0x10 ], %o5
 6005dd4:	c8 08 a0 11 	ldub  [ %g2 + 0x11 ], %g4
 6005dd8:	c2 08 a0 12 	ldub  [ %g2 + 0x12 ], %g1
 6005ddc:	c6 08 a0 13 	ldub  [ %g2 + 0x13 ], %g3
 6005de0:	9b 2b 60 18 	sll  %o5, 0x18, %o5
 6005de4:	89 29 20 10 	sll  %g4, 0x10, %g4
 6005de8:	83 28 60 08 	sll  %g1, 8, %g1
 6005dec:	88 11 00 0d 	or  %g4, %o5, %g4
 6005df0:	82 10 40 04 	or  %g1, %g4, %g1
 6005df4:	82 10 c0 01 	or  %g3, %g1, %g1
 6005df8:	80 a0 60 04 	cmp  %g1, 4
 6005dfc:	02 80 00 1c 	be  6005e6c <usb_cep_setup+0x36c>
 6005e00:	80 a0 60 05 	cmp  %g1, 5
 6005e04:	02 bf ff 98 	be  6005c64 <usb_cep_setup+0x164>
 6005e08:	80 a0 60 06 	cmp  %g1, 6
 6005e0c:	12 bf ff 6a 	bne  6005bb4 <usb_cep_setup+0xb4>
 6005e10:	01 00 00 00 	nop 
 6005e14:	c2 08 a0 1d 	ldub  [ %g2 + 0x1d ], %g1
 6005e18:	c0 28 a0 0c 	clrb  [ %g2 + 0xc ]
 6005e1c:	c0 28 a0 0d 	clrb  [ %g2 + 0xd ]
 6005e20:	c0 28 a0 0e 	clrb  [ %g2 + 0xe ]
 6005e24:	c2 28 80 00 	stb  %g1, [ %g2 ]
 6005e28:	82 10 20 01 	mov  1, %g1
 6005e2c:	10 bf ff 62 	b  6005bb4 <usb_cep_setup+0xb4>
 6005e30:	c2 28 a0 0f 	stb  %g1, [ %g2 + 0xf ]
 6005e34:	c0 28 a0 14 	clrb  [ %g2 + 0x14 ]
 6005e38:	c0 28 a0 15 	clrb  [ %g2 + 0x15 ]
 6005e3c:	c2 28 a0 17 	stb  %g1, [ %g2 + 0x17 ]
 6005e40:	c0 28 a0 16 	clrb  [ %g2 + 0x16 ]
 6005e44:	82 10 20 01 	mov  1, %g1
 6005e48:	10 bf ff d0 	b  6005d88 <usb_cep_setup+0x288>
 6005e4c:	c2 28 a0 1d 	stb  %g1, [ %g2 + 0x1d ]
 6005e50:	c0 28 a0 0c 	clrb  [ %g2 + 0xc ]
 6005e54:	c0 28 a0 0d 	clrb  [ %g2 + 0xd ]
 6005e58:	c2 28 a0 0f 	stb  %g1, [ %g2 + 0xf ]
 6005e5c:	c0 28 a0 0e 	clrb  [ %g2 + 0xe ]
 6005e60:	82 10 3f ff 	mov  -1, %g1
 6005e64:	10 bf ff 54 	b  6005bb4 <usb_cep_setup+0xb4>
 6005e68:	c2 28 80 00 	stb  %g1, [ %g2 ]
 6005e6c:	82 10 20 01 	mov  1, %g1
 6005e70:	10 bf ff 51 	b  6005bb4 <usb_cep_setup+0xb4>
 6005e74:	c2 28 a0 1a 	stb  %g1, [ %g2 + 0x1a ]
 6005e78:	80 88 60 1f 	btst  0x1f, %g1
 6005e7c:	22 bf ff 73 	be,a   6005c48 <usb_cep_setup+0x148>
 6005e80:	c0 28 a0 1b 	clrb  [ %g2 + 0x1b ]
 6005e84:	10 bf ff 72 	b  6005c4c <usb_cep_setup+0x14c>
 6005e88:	c0 29 20 0f 	clrb  [ %g4 + 0xf ]

06005e8c <usb_cep_set_descriptor>:
 6005e8c:	81 c3 e0 08 	retl 
 6005e90:	01 00 00 00 	nop 

06005e94 <usb_cep_get_config>:
 6005e94:	9d e3 bf a0 	save  %sp, -96, %sp
 6005e98:	07 03 40 00 	sethi  %hi(0xd000000), %g3
 6005e9c:	82 10 e0 98 	or  %g3, 0x98, %g1	! d000098 <cep>
 6005ea0:	d8 08 60 10 	ldub  [ %g1 + 0x10 ], %o4
 6005ea4:	da 08 60 11 	ldub  [ %g1 + 0x11 ], %o5
 6005ea8:	c4 08 60 12 	ldub  [ %g1 + 0x12 ], %g2
 6005eac:	c8 08 60 13 	ldub  [ %g1 + 0x13 ], %g4
 6005eb0:	99 2b 20 18 	sll  %o4, 0x18, %o4
 6005eb4:	9b 2b 60 10 	sll  %o5, 0x10, %o5
 6005eb8:	85 28 a0 08 	sll  %g2, 8, %g2
 6005ebc:	9a 13 40 0c 	or  %o5, %o4, %o5
 6005ec0:	84 10 80 0d 	or  %g2, %o5, %g2
 6005ec4:	84 11 00 02 	or  %g4, %g2, %g2
 6005ec8:	80 a0 a0 04 	cmp  %g2, 4
 6005ecc:	02 80 00 10 	be  6005f0c <usb_cep_get_config+0x78>
 6005ed0:	80 a0 a0 05 	cmp  %g2, 5
 6005ed4:	02 80 00 12 	be  6005f1c <usb_cep_get_config+0x88>
 6005ed8:	80 a0 a0 06 	cmp  %g2, 6
 6005edc:	22 80 00 04 	be,a   6005eec <usb_cep_get_config+0x58>
 6005ee0:	c4 08 60 1d 	ldub  [ %g1 + 0x1d ], %g2
 6005ee4:	81 c7 e0 08 	ret 
 6005ee8:	81 e8 00 00 	restore 
 6005eec:	c4 28 e0 98 	stb  %g2, [ %g3 + 0x98 ]
 6005ef0:	84 10 20 01 	mov  1, %g2
 6005ef4:	c0 28 60 0c 	clrb  [ %g1 + 0xc ]
 6005ef8:	c0 28 60 0d 	clrb  [ %g1 + 0xd ]
 6005efc:	c4 28 60 0f 	stb  %g2, [ %g1 + 0xf ]
 6005f00:	c0 28 60 0e 	clrb  [ %g1 + 0xe ]
 6005f04:	81 c7 e0 08 	ret 
 6005f08:	81 e8 00 00 	restore 
 6005f0c:	84 10 20 01 	mov  1, %g2
 6005f10:	c4 28 60 1a 	stb  %g2, [ %g1 + 0x1a ]
 6005f14:	81 c7 e0 08 	ret 
 6005f18:	81 e8 00 00 	restore 
 6005f1c:	84 10 20 01 	mov  1, %g2
 6005f20:	c0 28 e0 98 	clrb  [ %g3 + 0x98 ]
 6005f24:	c0 28 60 0c 	clrb  [ %g1 + 0xc ]
 6005f28:	c4 28 60 0f 	stb  %g2, [ %g1 + 0xf ]
 6005f2c:	c0 28 60 0d 	clrb  [ %g1 + 0xd ]
 6005f30:	c0 28 60 0e 	clrb  [ %g1 + 0xe ]
 6005f34:	81 c7 e0 08 	ret 
 6005f38:	81 e8 00 00 	restore 

06005f3c <usb_cep_set_config>:
 6005f3c:	9d e3 bf a0 	save  %sp, -96, %sp
 6005f40:	03 03 40 00 	sethi  %hi(0xd000000), %g1
 6005f44:	82 10 60 98 	or  %g1, 0x98, %g1	! d000098 <cep>
 6005f48:	da 08 60 10 	ldub  [ %g1 + 0x10 ], %o5
 6005f4c:	c8 08 60 11 	ldub  [ %g1 + 0x11 ], %g4
 6005f50:	c4 08 60 12 	ldub  [ %g1 + 0x12 ], %g2
 6005f54:	c6 08 60 13 	ldub  [ %g1 + 0x13 ], %g3
 6005f58:	9b 2b 60 18 	sll  %o5, 0x18, %o5
 6005f5c:	89 29 20 10 	sll  %g4, 0x10, %g4
 6005f60:	85 28 a0 08 	sll  %g2, 8, %g2
 6005f64:	88 11 00 0d 	or  %g4, %o5, %g4
 6005f68:	84 10 80 04 	or  %g2, %g4, %g2
 6005f6c:	84 10 c0 02 	or  %g3, %g2, %g2
 6005f70:	80 a0 a0 04 	cmp  %g2, 4
 6005f74:	02 80 00 24 	be  6006004 <usb_cep_set_config+0xc8>
 6005f78:	84 10 20 01 	mov  1, %g2
 6005f7c:	c4 08 60 02 	ldub  [ %g1 + 2 ], %g2
 6005f80:	80 a0 a0 00 	cmp  %g2, 0
 6005f84:	02 80 00 12 	be  6005fcc <usb_cep_set_config+0x90>
 6005f88:	84 10 20 05 	mov  5, %g2
 6005f8c:	84 10 20 06 	mov  6, %g2
 6005f90:	c0 28 60 14 	clrb  [ %g1 + 0x14 ]
 6005f94:	c0 28 60 15 	clrb  [ %g1 + 0x15 ]
 6005f98:	c4 28 60 17 	stb  %g2, [ %g1 + 0x17 ]
 6005f9c:	84 10 20 01 	mov  1, %g2
 6005fa0:	c4 28 60 1d 	stb  %g2, [ %g1 + 0x1d ]
 6005fa4:	05 03 40 02 	sethi  %hi(0xd000800), %g2
 6005fa8:	c4 00 a1 5c 	ld  [ %g2 + 0x15c ], %g2	! d00095c <pUsbDevReg>
 6005fac:	c0 28 60 16 	clrb  [ %g1 + 0x16 ]
 6005fb0:	c0 28 60 0f 	clrb  [ %g1 + 0xf ]
 6005fb4:	c0 28 60 0c 	clrb  [ %g1 + 0xc ]
 6005fb8:	c0 28 60 0d 	clrb  [ %g1 + 0xd ]
 6005fbc:	c0 28 60 0e 	clrb  [ %g1 + 0xe ]
 6005fc0:	c0 20 a0 34 	clr  [ %g2 + 0x34 ]
 6005fc4:	81 c7 e0 08 	ret 
 6005fc8:	81 e8 00 00 	restore 
 6005fcc:	c0 28 60 14 	clrb  [ %g1 + 0x14 ]
 6005fd0:	c0 28 60 15 	clrb  [ %g1 + 0x15 ]
 6005fd4:	c4 28 60 17 	stb  %g2, [ %g1 + 0x17 ]
 6005fd8:	05 03 40 02 	sethi  %hi(0xd000800), %g2
 6005fdc:	c4 00 a1 5c 	ld  [ %g2 + 0x15c ], %g2	! d00095c <pUsbDevReg>
 6005fe0:	c0 28 60 16 	clrb  [ %g1 + 0x16 ]
 6005fe4:	c0 28 60 1d 	clrb  [ %g1 + 0x1d ]
 6005fe8:	c0 28 60 0f 	clrb  [ %g1 + 0xf ]
 6005fec:	c0 28 60 0c 	clrb  [ %g1 + 0xc ]
 6005ff0:	c0 28 60 0d 	clrb  [ %g1 + 0xd ]
 6005ff4:	c0 28 60 0e 	clrb  [ %g1 + 0xe ]
 6005ff8:	c0 20 a0 34 	clr  [ %g2 + 0x34 ]
 6005ffc:	81 c7 e0 08 	ret 
 6006000:	81 e8 00 00 	restore 
 6006004:	c4 28 60 1a 	stb  %g2, [ %g1 + 0x1a ]
 6006008:	81 c7 e0 08 	ret 
 600600c:	81 e8 00 00 	restore 

06006010 <usb_cep_get_interface>:
 6006010:	9d e3 bf a0 	save  %sp, -96, %sp
 6006014:	05 03 40 00 	sethi  %hi(0xd000000), %g2
 6006018:	82 10 a0 98 	or  %g2, 0x98, %g1	! d000098 <cep>
 600601c:	c8 08 60 13 	ldub  [ %g1 + 0x13 ], %g4
 6006020:	d8 08 60 10 	ldub  [ %g1 + 0x10 ], %o4
 6006024:	da 08 60 11 	ldub  [ %g1 + 0x11 ], %o5
 6006028:	c6 08 60 12 	ldub  [ %g1 + 0x12 ], %g3
 600602c:	99 2b 20 18 	sll  %o4, 0x18, %o4
 6006030:	9b 2b 60 10 	sll  %o5, 0x10, %o5
 6006034:	87 28 e0 08 	sll  %g3, 8, %g3
 6006038:	9a 13 40 0c 	or  %o5, %o4, %o5
 600603c:	86 10 c0 0d 	or  %g3, %o5, %g3
 6006040:	86 11 00 03 	or  %g4, %g3, %g3
 6006044:	88 00 ff fc 	add  %g3, -4, %g4
 6006048:	80 a1 20 01 	cmp  %g4, 1
 600604c:	08 80 00 17 	bleu  60060a8 <usb_cep_get_interface+0x98>
 6006050:	80 a0 e0 06 	cmp  %g3, 6
 6006054:	02 80 00 0c 	be  6006084 <usb_cep_get_interface+0x74>
 6006058:	c6 08 a0 98 	ldub  [ %g2 + 0x98 ], %g3
 600605c:	80 a0 e0 21 	cmp  %g3, 0x21
 6006060:	12 80 00 14 	bne  60060b0 <usb_cep_get_interface+0xa0>
 6006064:	01 00 00 00 	nop 
 6006068:	c0 28 a0 98 	clrb  [ %g2 + 0x98 ]
 600606c:	c0 28 60 0f 	clrb  [ %g1 + 0xf ]
 6006070:	c0 28 60 0c 	clrb  [ %g1 + 0xc ]
 6006074:	c0 28 60 0d 	clrb  [ %g1 + 0xd ]
 6006078:	c0 28 60 0e 	clrb  [ %g1 + 0xe ]
 600607c:	81 c7 e0 08 	ret 
 6006080:	81 e8 00 00 	restore 
 6006084:	86 10 20 01 	mov  1, %g3
 6006088:	c0 28 60 0c 	clrb  [ %g1 + 0xc ]
 600608c:	c0 28 60 0d 	clrb  [ %g1 + 0xd ]
 6006090:	c6 28 60 0f 	stb  %g3, [ %g1 + 0xf ]
 6006094:	c0 28 60 0e 	clrb  [ %g1 + 0xe ]
 6006098:	82 10 3f ff 	mov  -1, %g1
 600609c:	c2 28 a0 98 	stb  %g1, [ %g2 + 0x98 ]
 60060a0:	81 c7 e0 08 	ret 
 60060a4:	81 e8 00 00 	restore 
 60060a8:	84 10 20 01 	mov  1, %g2
 60060ac:	c4 28 60 1a 	stb  %g2, [ %g1 + 0x1a ]
 60060b0:	81 c7 e0 08 	ret 
 60060b4:	81 e8 00 00 	restore 

060060b8 <usb_cep_set_interface>:
 60060b8:	9d e3 bf a0 	save  %sp, -96, %sp
 60060bc:	03 03 40 00 	sethi  %hi(0xd000000), %g1
 60060c0:	82 10 60 98 	or  %g1, 0x98, %g1	! d000098 <cep>
 60060c4:	da 08 60 10 	ldub  [ %g1 + 0x10 ], %o5
 60060c8:	c8 08 60 11 	ldub  [ %g1 + 0x11 ], %g4
 60060cc:	c4 08 60 12 	ldub  [ %g1 + 0x12 ], %g2
 60060d0:	c6 08 60 13 	ldub  [ %g1 + 0x13 ], %g3
 60060d4:	9b 2b 60 18 	sll  %o5, 0x18, %o5
 60060d8:	89 29 20 10 	sll  %g4, 0x10, %g4
 60060dc:	85 28 a0 08 	sll  %g2, 8, %g2
 60060e0:	88 11 00 0d 	or  %g4, %o5, %g4
 60060e4:	84 10 80 04 	or  %g2, %g4, %g2
 60060e8:	84 10 c0 02 	or  %g3, %g2, %g2
 60060ec:	80 a0 a0 06 	cmp  %g2, 6
 60060f0:	02 80 00 03 	be  60060fc <usb_cep_set_interface+0x44>
 60060f4:	84 10 20 01 	mov  1, %g2
 60060f8:	c4 28 60 1a 	stb  %g2, [ %g1 + 0x1a ]
 60060fc:	05 03 40 02 	sethi  %hi(0xd000800), %g2
 6006100:	c4 00 a1 5c 	ld  [ %g2 + 0x15c ], %g2	! d00095c <pUsbDevReg>
 6006104:	c0 28 60 0f 	clrb  [ %g1 + 0xf ]
 6006108:	c0 28 60 0c 	clrb  [ %g1 + 0xc ]
 600610c:	c0 28 60 0d 	clrb  [ %g1 + 0xd ]
 6006110:	c0 28 60 0e 	clrb  [ %g1 + 0xe ]
 6006114:	c0 20 a0 34 	clr  [ %g2 + 0x34 ]
 6006118:	81 c7 e0 08 	ret 
 600611c:	81 e8 00 00 	restore 

06006120 <usb_cep_synch_frame>:
 6006120:	81 c3 e0 08 	retl 
 6006124:	01 00 00 00 	nop 

06006128 <usb_cep_get_max_lun>:
 6006128:	05 03 40 00 	sethi  %hi(0xd000000), %g2
 600612c:	82 10 a0 98 	or  %g2, 0x98, %g1	! d000098 <cep>
 6006130:	c0 28 a0 98 	clrb  [ %g2 + 0x98 ]
 6006134:	84 10 20 01 	mov  1, %g2
 6006138:	c0 28 60 0c 	clrb  [ %g1 + 0xc ]
 600613c:	c0 28 60 0d 	clrb  [ %g1 + 0xd ]
 6006140:	c4 28 60 0f 	stb  %g2, [ %g1 + 0xf ]
 6006144:	81 c3 e0 08 	retl 
 6006148:	c0 28 60 0e 	clrb  [ %g1 + 0xe ]

0600614c <usb_cep_mass_storage_reset>:
 600614c:	03 03 40 00 	sethi  %hi(0xd000000), %g1
 6006150:	05 03 40 02 	sethi  %hi(0xd000800), %g2
 6006154:	82 10 60 98 	or  %g1, 0x98, %g1
 6006158:	c4 00 a1 5c 	ld  [ %g2 + 0x15c ], %g2
 600615c:	c0 28 60 0f 	clrb  [ %g1 + 0xf ]
 6006160:	c0 28 60 0c 	clrb  [ %g1 + 0xc ]
 6006164:	c0 28 60 0d 	clrb  [ %g1 + 0xd ]
 6006168:	c0 28 60 0e 	clrb  [ %g1 + 0xe ]
 600616c:	c0 20 a0 34 	clr  [ %g2 + 0x34 ]
 6006170:	81 c3 e0 08 	retl 
 6006174:	01 00 00 00 	nop 

06006178 <usb_bk_error>:
 6006178:	9d e3 bf a0 	save  %sp, -96, %sp
 600617c:	03 03 40 00 	sethi  %hi(0xd000000), %g1
 6006180:	82 10 60 48 	or  %g1, 0x48, %g1	! d000048 <bk>
 6006184:	c6 08 60 0b 	ldub  [ %g1 + 0xb ], %g3
 6006188:	da 08 60 08 	ldub  [ %g1 + 8 ], %o5
 600618c:	c8 08 60 09 	ldub  [ %g1 + 9 ], %g4
 6006190:	c4 08 60 0a 	ldub  [ %g1 + 0xa ], %g2
 6006194:	9b 2b 60 18 	sll  %o5, 0x18, %o5
 6006198:	89 29 20 10 	sll  %g4, 0x10, %g4
 600619c:	85 28 a0 08 	sll  %g2, 8, %g2
 60061a0:	88 11 00 0d 	or  %g4, %o5, %g4
 60061a4:	84 10 80 04 	or  %g2, %g4, %g2
 60061a8:	84 10 c0 02 	or  %g3, %g2, %g2
 60061ac:	b2 20 80 19 	sub  %g2, %i1, %i1
 60061b0:	87 2e 60 18 	sll  %i1, 0x18, %g3
 60061b4:	85 36 60 18 	srl  %i1, 0x18, %g2
 60061b8:	84 10 c0 02 	or  %g3, %g2, %g2
 60061bc:	07 00 00 3f 	sethi  %hi(0xfc00), %g3
 60061c0:	86 10 e3 00 	or  %g3, 0x300, %g3	! ff00 <RAM_LENGTH+0x8f00>
 60061c4:	89 2e 60 08 	sll  %i1, 8, %g4
 60061c8:	b3 36 60 08 	srl  %i1, 8, %i1
 60061cc:	b2 0e 40 03 	and  %i1, %g3, %i1
 60061d0:	07 00 3f c0 	sethi  %hi(0xff0000), %g3
 60061d4:	86 09 00 03 	and  %g4, %g3, %g3
 60061d8:	84 10 80 19 	or  %g2, %i1, %g2
 60061dc:	84 10 80 03 	or  %g2, %g3, %g2
 60061e0:	9b 30 a0 18 	srl  %g2, 0x18, %o5
 60061e4:	89 30 a0 10 	srl  %g2, 0x10, %g4
 60061e8:	87 30 a0 08 	srl  %g2, 8, %g3
 60061ec:	c4 28 60 2b 	stb  %g2, [ %g1 + 0x2b ]
 60061f0:	f0 28 60 2c 	stb  %i0, [ %g1 + 0x2c ]
 60061f4:	da 28 60 28 	stb  %o5, [ %g1 + 0x28 ]
 60061f8:	c8 28 60 29 	stb  %g4, [ %g1 + 0x29 ]
 60061fc:	c6 28 60 2a 	stb  %g3, [ %g1 + 0x2a ]
 6006200:	81 c7 e0 08 	ret 
 6006204:	81 e8 00 00 	restore 

06006208 <usb_bk_out_data>:
 6006208:	9d e3 bf a0 	save  %sp, -96, %sp
 600620c:	21 03 40 00 	sethi  %hi(0xd000000), %l0
 6006210:	a0 14 20 48 	or  %l0, 0x48, %l0	! d000048 <bk>
 6006214:	c6 0c 20 30 	ldub  [ %l0 + 0x30 ], %g3
 6006218:	c4 0c 20 31 	ldub  [ %l0 + 0x31 ], %g2
 600621c:	d2 0c 20 32 	ldub  [ %l0 + 0x32 ], %o1
 6006220:	c2 0c 20 33 	ldub  [ %l0 + 0x33 ], %g1
 6006224:	87 28 e0 18 	sll  %g3, 0x18, %g3
 6006228:	85 28 a0 10 	sll  %g2, 0x10, %g2
 600622c:	93 2a 60 08 	sll  %o1, 8, %o1
 6006230:	84 10 80 03 	or  %g2, %g3, %g2
 6006234:	92 12 40 02 	or  %o1, %g2, %o1
 6006238:	92 10 40 09 	or  %g1, %o1, %o1
 600623c:	80 a2 62 00 	cmp  %o1, 0x200
 6006240:	18 80 00 3b 	bgu  600632c <usb_bk_out_data+0x124>
 6006244:	c4 0c 20 37 	ldub  [ %l0 + 0x37 ], %g2
 6006248:	d6 0c 20 38 	ldub  [ %l0 + 0x38 ], %o3
 600624c:	d8 0c 20 39 	ldub  [ %l0 + 0x39 ], %o4
 6006250:	c8 0c 20 34 	ldub  [ %l0 + 0x34 ], %g4
 6006254:	c6 0c 20 35 	ldub  [ %l0 + 0x35 ], %g3
 6006258:	c2 0c 20 36 	ldub  [ %l0 + 0x36 ], %g1
 600625c:	da 0c 20 3b 	ldub  [ %l0 + 0x3b ], %o5
 6006260:	97 2a e0 18 	sll  %o3, 0x18, %o3
 6006264:	89 29 20 18 	sll  %g4, 0x18, %g4
 6006268:	d0 0c 20 3a 	ldub  [ %l0 + 0x3a ], %o0
 600626c:	99 2b 20 10 	sll  %o4, 0x10, %o4
 6006270:	87 28 e0 10 	sll  %g3, 0x10, %g3
 6006274:	98 13 00 0b 	or  %o4, %o3, %o4
 6006278:	86 10 c0 04 	or  %g3, %g4, %g3
 600627c:	83 28 60 08 	sll  %g1, 8, %g1
 6006280:	82 10 40 03 	or  %g1, %g3, %g1
 6006284:	82 10 80 01 	or  %g2, %g1, %g1
 6006288:	91 2a 20 08 	sll  %o0, 8, %o0
 600628c:	90 12 00 0c 	or  %o0, %o4, %o0
 6006290:	90 13 40 08 	or  %o5, %o0, %o0
 6006294:	7f ff fb e7 	call  6005230 <usb_dev_ep3_rx>
 6006298:	90 02 00 01 	add  %o0, %g1, %o0
 600629c:	c2 0c 20 33 	ldub  [ %l0 + 0x33 ], %g1
 60062a0:	d4 0c 20 30 	ldub  [ %l0 + 0x30 ], %o2
 60062a4:	d6 0c 20 31 	ldub  [ %l0 + 0x31 ], %o3
 60062a8:	c4 0c 20 32 	ldub  [ %l0 + 0x32 ], %g2
 60062ac:	d8 0c 20 34 	ldub  [ %l0 + 0x34 ], %o4
 60062b0:	c8 0c 20 35 	ldub  [ %l0 + 0x35 ], %g4
 60062b4:	c6 0c 20 37 	ldub  [ %l0 + 0x37 ], %g3
 60062b8:	da 0c 20 36 	ldub  [ %l0 + 0x36 ], %o5
 60062bc:	95 2a a0 18 	sll  %o2, 0x18, %o2
 60062c0:	97 2a e0 10 	sll  %o3, 0x10, %o3
 60062c4:	85 28 a0 08 	sll  %g2, 8, %g2
 60062c8:	96 12 c0 0a 	or  %o3, %o2, %o3
 60062cc:	99 2b 20 18 	sll  %o4, 0x18, %o4
 60062d0:	84 10 80 0b 	or  %g2, %o3, %g2
 60062d4:	89 29 20 10 	sll  %g4, 0x10, %g4
 60062d8:	84 10 40 02 	or  %g1, %g2, %g2
 60062dc:	88 11 00 0c 	or  %g4, %o4, %g4
 60062e0:	83 2b 60 08 	sll  %o5, 8, %g1
 60062e4:	82 10 40 04 	or  %g1, %g4, %g1
 60062e8:	82 10 c0 01 	or  %g3, %g1, %g1
 60062ec:	82 00 80 01 	add  %g2, %g1, %g1
 60062f0:	89 30 60 18 	srl  %g1, 0x18, %g4
 60062f4:	87 30 60 10 	srl  %g1, 0x10, %g3
 60062f8:	85 30 60 08 	srl  %g1, 8, %g2
 60062fc:	c2 2c 20 37 	stb  %g1, [ %l0 + 0x37 ]
 6006300:	c8 2c 20 34 	stb  %g4, [ %l0 + 0x34 ]
 6006304:	82 10 20 02 	mov  2, %g1
 6006308:	c6 2c 20 35 	stb  %g3, [ %l0 + 0x35 ]
 600630c:	c4 2c 20 36 	stb  %g2, [ %l0 + 0x36 ]
 6006310:	c0 2c 20 30 	clrb  [ %l0 + 0x30 ]
 6006314:	c0 2c 20 31 	clrb  [ %l0 + 0x31 ]
 6006318:	c0 2c 20 32 	clrb  [ %l0 + 0x32 ]
 600631c:	c0 2c 20 33 	clrb  [ %l0 + 0x33 ]
 6006320:	c2 2c 20 1f 	stb  %g1, [ %l0 + 0x1f ]
 6006324:	81 c7 e0 08 	ret 
 6006328:	81 e8 00 00 	restore 
 600632c:	d6 0c 20 38 	ldub  [ %l0 + 0x38 ], %o3
 6006330:	d8 0c 20 39 	ldub  [ %l0 + 0x39 ], %o4
 6006334:	c8 0c 20 34 	ldub  [ %l0 + 0x34 ], %g4
 6006338:	c6 0c 20 35 	ldub  [ %l0 + 0x35 ], %g3
 600633c:	c2 0c 20 36 	ldub  [ %l0 + 0x36 ], %g1
 6006340:	da 0c 20 3b 	ldub  [ %l0 + 0x3b ], %o5
 6006344:	97 2a e0 18 	sll  %o3, 0x18, %o3
 6006348:	89 29 20 18 	sll  %g4, 0x18, %g4
 600634c:	d0 0c 20 3a 	ldub  [ %l0 + 0x3a ], %o0
 6006350:	99 2b 20 10 	sll  %o4, 0x10, %o4
 6006354:	87 28 e0 10 	sll  %g3, 0x10, %g3
 6006358:	98 13 00 0b 	or  %o4, %o3, %o4
 600635c:	86 10 c0 04 	or  %g3, %g4, %g3
 6006360:	83 28 60 08 	sll  %g1, 8, %g1
 6006364:	82 10 40 03 	or  %g1, %g3, %g1
 6006368:	82 10 80 01 	or  %g2, %g1, %g1
 600636c:	91 2a 20 08 	sll  %o0, 8, %o0
 6006370:	92 10 22 00 	mov  0x200, %o1
 6006374:	90 12 00 0c 	or  %o0, %o4, %o0
 6006378:	90 13 40 08 	or  %o5, %o0, %o0
 600637c:	7f ff fb ad 	call  6005230 <usb_dev_ep3_rx>
 6006380:	90 02 00 01 	add  %o0, %g1, %o0
 6006384:	d4 0c 20 34 	ldub  [ %l0 + 0x34 ], %o2
 6006388:	d6 0c 20 35 	ldub  [ %l0 + 0x35 ], %o3
 600638c:	da 0c 20 30 	ldub  [ %l0 + 0x30 ], %o5
 6006390:	c8 0c 20 31 	ldub  [ %l0 + 0x31 ], %g4
 6006394:	d8 0c 20 37 	ldub  [ %l0 + 0x37 ], %o4
 6006398:	c6 0c 20 33 	ldub  [ %l0 + 0x33 ], %g3
 600639c:	c4 0c 20 36 	ldub  [ %l0 + 0x36 ], %g2
 60063a0:	c2 0c 20 32 	ldub  [ %l0 + 0x32 ], %g1
 60063a4:	95 2a a0 18 	sll  %o2, 0x18, %o2
 60063a8:	9b 2b 60 18 	sll  %o5, 0x18, %o5
 60063ac:	97 2a e0 10 	sll  %o3, 0x10, %o3
 60063b0:	89 29 20 10 	sll  %g4, 0x10, %g4
 60063b4:	96 12 c0 0a 	or  %o3, %o2, %o3
 60063b8:	88 11 00 0d 	or  %g4, %o5, %g4
 60063bc:	85 28 a0 08 	sll  %g2, 8, %g2
 60063c0:	83 28 60 08 	sll  %g1, 8, %g1
 60063c4:	84 10 80 0b 	or  %g2, %o3, %g2
 60063c8:	82 10 40 04 	or  %g1, %g4, %g1
 60063cc:	84 13 00 02 	or  %o4, %g2, %g2
 60063d0:	82 10 c0 01 	or  %g3, %g1, %g1
 60063d4:	84 00 a2 00 	add  %g2, 0x200, %g2
 60063d8:	82 00 7e 00 	add  %g1, -512, %g1
 60063dc:	95 30 a0 18 	srl  %g2, 0x18, %o2
 60063e0:	9b 30 60 18 	srl  %g1, 0x18, %o5
 60063e4:	89 30 60 10 	srl  %g1, 0x10, %g4
 60063e8:	87 30 60 08 	srl  %g1, 8, %g3
 60063ec:	97 30 a0 10 	srl  %g2, 0x10, %o3
 60063f0:	99 30 a0 08 	srl  %g2, 8, %o4
 60063f4:	c2 2c 20 33 	stb  %g1, [ %l0 + 0x33 ]
 60063f8:	d4 2c 20 34 	stb  %o2, [ %l0 + 0x34 ]
 60063fc:	82 10 20 01 	mov  1, %g1
 6006400:	d6 2c 20 35 	stb  %o3, [ %l0 + 0x35 ]
 6006404:	d8 2c 20 36 	stb  %o4, [ %l0 + 0x36 ]
 6006408:	c4 2c 20 37 	stb  %g2, [ %l0 + 0x37 ]
 600640c:	da 2c 20 30 	stb  %o5, [ %l0 + 0x30 ]
 6006410:	c8 2c 20 31 	stb  %g4, [ %l0 + 0x31 ]
 6006414:	c6 2c 20 32 	stb  %g3, [ %l0 + 0x32 ]
 6006418:	c2 2c 20 1f 	stb  %g1, [ %l0 + 0x1f ]
 600641c:	81 c7 e0 08 	ret 
 6006420:	81 e8 00 00 	restore 

06006424 <usb_bk_in_data>:
 6006424:	9d e3 bf a0 	save  %sp, -96, %sp
 6006428:	21 03 40 00 	sethi  %hi(0xd000000), %l0
 600642c:	a0 14 20 48 	or  %l0, 0x48, %l0	! d000048 <bk>
 6006430:	c6 0c 20 3c 	ldub  [ %l0 + 0x3c ], %g3
 6006434:	c4 0c 20 3d 	ldub  [ %l0 + 0x3d ], %g2
 6006438:	d2 0c 20 3e 	ldub  [ %l0 + 0x3e ], %o1
 600643c:	c2 0c 20 3f 	ldub  [ %l0 + 0x3f ], %g1
 6006440:	87 28 e0 18 	sll  %g3, 0x18, %g3
 6006444:	85 28 a0 10 	sll  %g2, 0x10, %g2
 6006448:	93 2a 60 08 	sll  %o1, 8, %o1
 600644c:	84 10 80 03 	or  %g2, %g3, %g2
 6006450:	92 12 40 02 	or  %o1, %g2, %o1
 6006454:	92 10 40 09 	or  %g1, %o1, %o1
 6006458:	80 a2 62 00 	cmp  %o1, 0x200
 600645c:	18 80 00 3b 	bgu  6006548 <usb_bk_in_data+0x124>
 6006460:	c4 0c 20 43 	ldub  [ %l0 + 0x43 ], %g2
 6006464:	d6 0c 20 44 	ldub  [ %l0 + 0x44 ], %o3
 6006468:	d8 0c 20 45 	ldub  [ %l0 + 0x45 ], %o4
 600646c:	c8 0c 20 40 	ldub  [ %l0 + 0x40 ], %g4
 6006470:	c6 0c 20 41 	ldub  [ %l0 + 0x41 ], %g3
 6006474:	c2 0c 20 42 	ldub  [ %l0 + 0x42 ], %g1
 6006478:	da 0c 20 47 	ldub  [ %l0 + 0x47 ], %o5
 600647c:	97 2a e0 18 	sll  %o3, 0x18, %o3
 6006480:	89 29 20 18 	sll  %g4, 0x18, %g4
 6006484:	d0 0c 20 46 	ldub  [ %l0 + 0x46 ], %o0
 6006488:	99 2b 20 10 	sll  %o4, 0x10, %o4
 600648c:	87 28 e0 10 	sll  %g3, 0x10, %g3
 6006490:	98 13 00 0b 	or  %o4, %o3, %o4
 6006494:	86 10 c0 04 	or  %g3, %g4, %g3
 6006498:	83 28 60 08 	sll  %g1, 8, %g1
 600649c:	82 10 40 03 	or  %g1, %g3, %g1
 60064a0:	82 10 80 01 	or  %g2, %g1, %g1
 60064a4:	91 2a 20 08 	sll  %o0, 8, %o0
 60064a8:	90 12 00 0c 	or  %o0, %o4, %o0
 60064ac:	90 13 40 08 	or  %o5, %o0, %o0
 60064b0:	7f ff fb 91 	call  60052f4 <usb_dev_ep4_tx>
 60064b4:	90 02 00 01 	add  %o0, %g1, %o0
 60064b8:	c2 0c 20 3f 	ldub  [ %l0 + 0x3f ], %g1
 60064bc:	d4 0c 20 3c 	ldub  [ %l0 + 0x3c ], %o2
 60064c0:	d6 0c 20 3d 	ldub  [ %l0 + 0x3d ], %o3
 60064c4:	c4 0c 20 3e 	ldub  [ %l0 + 0x3e ], %g2
 60064c8:	d8 0c 20 40 	ldub  [ %l0 + 0x40 ], %o4
 60064cc:	c8 0c 20 41 	ldub  [ %l0 + 0x41 ], %g4
 60064d0:	c6 0c 20 43 	ldub  [ %l0 + 0x43 ], %g3
 60064d4:	da 0c 20 42 	ldub  [ %l0 + 0x42 ], %o5
 60064d8:	95 2a a0 18 	sll  %o2, 0x18, %o2
 60064dc:	97 2a e0 10 	sll  %o3, 0x10, %o3
 60064e0:	85 28 a0 08 	sll  %g2, 8, %g2
 60064e4:	96 12 c0 0a 	or  %o3, %o2, %o3
 60064e8:	99 2b 20 18 	sll  %o4, 0x18, %o4
 60064ec:	84 10 80 0b 	or  %g2, %o3, %g2
 60064f0:	89 29 20 10 	sll  %g4, 0x10, %g4
 60064f4:	84 10 40 02 	or  %g1, %g2, %g2
 60064f8:	88 11 00 0c 	or  %g4, %o4, %g4
 60064fc:	83 2b 60 08 	sll  %o5, 8, %g1
 6006500:	82 10 40 04 	or  %g1, %g4, %g1
 6006504:	82 10 c0 01 	or  %g3, %g1, %g1
 6006508:	82 00 80 01 	add  %g2, %g1, %g1
 600650c:	89 30 60 18 	srl  %g1, 0x18, %g4
 6006510:	87 30 60 10 	srl  %g1, 0x10, %g3
 6006514:	85 30 60 08 	srl  %g1, 8, %g2
 6006518:	c2 2c 20 43 	stb  %g1, [ %l0 + 0x43 ]
 600651c:	c8 2c 20 40 	stb  %g4, [ %l0 + 0x40 ]
 6006520:	82 10 20 04 	mov  4, %g1
 6006524:	c6 2c 20 41 	stb  %g3, [ %l0 + 0x41 ]
 6006528:	c4 2c 20 42 	stb  %g2, [ %l0 + 0x42 ]
 600652c:	c0 2c 20 3c 	clrb  [ %l0 + 0x3c ]
 6006530:	c0 2c 20 3d 	clrb  [ %l0 + 0x3d ]
 6006534:	c0 2c 20 3e 	clrb  [ %l0 + 0x3e ]
 6006538:	c0 2c 20 3f 	clrb  [ %l0 + 0x3f ]
 600653c:	c2 2c 20 1f 	stb  %g1, [ %l0 + 0x1f ]
 6006540:	81 c7 e0 08 	ret 
 6006544:	81 e8 00 00 	restore 
 6006548:	d6 0c 20 44 	ldub  [ %l0 + 0x44 ], %o3
 600654c:	d8 0c 20 45 	ldub  [ %l0 + 0x45 ], %o4
 6006550:	c8 0c 20 40 	ldub  [ %l0 + 0x40 ], %g4
 6006554:	c6 0c 20 41 	ldub  [ %l0 + 0x41 ], %g3
 6006558:	c2 0c 20 42 	ldub  [ %l0 + 0x42 ], %g1
 600655c:	da 0c 20 47 	ldub  [ %l0 + 0x47 ], %o5
 6006560:	97 2a e0 18 	sll  %o3, 0x18, %o3
 6006564:	89 29 20 18 	sll  %g4, 0x18, %g4
 6006568:	d0 0c 20 46 	ldub  [ %l0 + 0x46 ], %o0
 600656c:	99 2b 20 10 	sll  %o4, 0x10, %o4
 6006570:	87 28 e0 10 	sll  %g3, 0x10, %g3
 6006574:	98 13 00 0b 	or  %o4, %o3, %o4
 6006578:	86 10 c0 04 	or  %g3, %g4, %g3
 600657c:	83 28 60 08 	sll  %g1, 8, %g1
 6006580:	82 10 40 03 	or  %g1, %g3, %g1
 6006584:	82 10 80 01 	or  %g2, %g1, %g1
 6006588:	91 2a 20 08 	sll  %o0, 8, %o0
 600658c:	92 10 22 00 	mov  0x200, %o1
 6006590:	90 12 00 0c 	or  %o0, %o4, %o0
 6006594:	90 13 40 08 	or  %o5, %o0, %o0
 6006598:	7f ff fb 57 	call  60052f4 <usb_dev_ep4_tx>
 600659c:	90 02 00 01 	add  %o0, %g1, %o0
 60065a0:	d4 0c 20 40 	ldub  [ %l0 + 0x40 ], %o2
 60065a4:	d6 0c 20 41 	ldub  [ %l0 + 0x41 ], %o3
 60065a8:	da 0c 20 3c 	ldub  [ %l0 + 0x3c ], %o5
 60065ac:	c8 0c 20 3d 	ldub  [ %l0 + 0x3d ], %g4
 60065b0:	d8 0c 20 43 	ldub  [ %l0 + 0x43 ], %o4
 60065b4:	c6 0c 20 3f 	ldub  [ %l0 + 0x3f ], %g3
 60065b8:	c4 0c 20 42 	ldub  [ %l0 + 0x42 ], %g2
 60065bc:	c2 0c 20 3e 	ldub  [ %l0 + 0x3e ], %g1
 60065c0:	95 2a a0 18 	sll  %o2, 0x18, %o2
 60065c4:	9b 2b 60 18 	sll  %o5, 0x18, %o5
 60065c8:	97 2a e0 10 	sll  %o3, 0x10, %o3
 60065cc:	89 29 20 10 	sll  %g4, 0x10, %g4
 60065d0:	96 12 c0 0a 	or  %o3, %o2, %o3
 60065d4:	88 11 00 0d 	or  %g4, %o5, %g4
 60065d8:	85 28 a0 08 	sll  %g2, 8, %g2
 60065dc:	83 28 60 08 	sll  %g1, 8, %g1
 60065e0:	84 10 80 0b 	or  %g2, %o3, %g2
 60065e4:	82 10 40 04 	or  %g1, %g4, %g1
 60065e8:	84 13 00 02 	or  %o4, %g2, %g2
 60065ec:	82 10 c0 01 	or  %g3, %g1, %g1
 60065f0:	84 00 a2 00 	add  %g2, 0x200, %g2
 60065f4:	82 00 7e 00 	add  %g1, -512, %g1
 60065f8:	95 30 a0 18 	srl  %g2, 0x18, %o2
 60065fc:	9b 30 60 18 	srl  %g1, 0x18, %o5
 6006600:	89 30 60 10 	srl  %g1, 0x10, %g4
 6006604:	87 30 60 08 	srl  %g1, 8, %g3
 6006608:	97 30 a0 10 	srl  %g2, 0x10, %o3
 600660c:	99 30 a0 08 	srl  %g2, 8, %o4
 6006610:	c2 2c 20 3f 	stb  %g1, [ %l0 + 0x3f ]
 6006614:	d4 2c 20 40 	stb  %o2, [ %l0 + 0x40 ]
 6006618:	82 10 20 03 	mov  3, %g1
 600661c:	d6 2c 20 41 	stb  %o3, [ %l0 + 0x41 ]
 6006620:	d8 2c 20 42 	stb  %o4, [ %l0 + 0x42 ]
 6006624:	c4 2c 20 43 	stb  %g2, [ %l0 + 0x43 ]
 6006628:	da 2c 20 3c 	stb  %o5, [ %l0 + 0x3c ]
 600662c:	c8 2c 20 3d 	stb  %g4, [ %l0 + 0x3d ]
 6006630:	c6 2c 20 3e 	stb  %g3, [ %l0 + 0x3e ]
 6006634:	c2 2c 20 1f 	stb  %g1, [ %l0 + 0x1f ]
 6006638:	81 c7 e0 08 	ret 
 600663c:	81 e8 00 00 	restore 

06006640 <usb_bk_csw>:
 6006640:	9d e3 bf a0 	save  %sp, -96, %sp
 6006644:	11 03 40 00 	sethi  %hi(0xd000000), %o0
 6006648:	92 10 20 0d 	mov  0xd, %o1
 600664c:	7f ff fb 2a 	call  60052f4 <usb_dev_ep4_tx>
 6006650:	90 12 20 68 	or  %o0, 0x68, %o0
 6006654:	03 03 40 00 	sethi  %hi(0xd000000), %g1
 6006658:	c0 28 60 67 	clrb  [ %g1 + 0x67 ]	! d000067 <bk+0x1f>
 600665c:	81 c7 e0 08 	ret 
 6006660:	81 e8 00 00 	restore 

06006664 <usb_bk_in>:
 6006664:	9d e3 bf a0 	save  %sp, -96, %sp
 6006668:	03 03 40 00 	sethi  %hi(0xd000000), %g1
 600666c:	82 10 60 48 	or  %g1, 0x48, %g1	! d000048 <bk>
 6006670:	c4 08 60 1f 	ldub  [ %g1 + 0x1f ], %g2
 6006674:	80 a0 a0 09 	cmp  %g2, 9
 6006678:	08 80 00 04 	bleu  6006688 <usb_bk_in+0x24>
 600667c:	85 28 a0 02 	sll  %g2, 2, %g2
 6006680:	81 c7 e0 08 	ret 
 6006684:	81 e8 00 00 	restore 
 6006688:	07 01 80 14 	sethi  %hi(0x6005000), %g3
 600668c:	86 10 e0 30 	or  %g3, 0x30, %g3	! 6005030 <nandFlashWrite+0xbc>
 6006690:	c4 00 c0 02 	ld  [ %g3 + %g2 ], %g2
 6006694:	81 c0 80 00 	jmp  %g2
 6006698:	01 00 00 00 	nop 
 600669c:	90 10 20 00 	clr  %o0	! 0 <data_start>
 60066a0:	7f ff fe b6 	call  6006178 <usb_bk_error>
 60066a4:	92 10 20 00 	clr  %o1
 60066a8:	7f ff ff e6 	call  6006640 <usb_bk_csw>
 60066ac:	81 e8 00 00 	restore 
 60066b0:	d2 08 60 0b 	ldub  [ %g1 + 0xb ], %o1
 60066b4:	c6 08 60 08 	ldub  [ %g1 + 8 ], %g3
 60066b8:	c4 08 60 09 	ldub  [ %g1 + 9 ], %g2
 60066bc:	c2 08 60 0a 	ldub  [ %g1 + 0xa ], %g1
 60066c0:	87 28 e0 18 	sll  %g3, 0x18, %g3
 60066c4:	85 28 a0 10 	sll  %g2, 0x10, %g2
 60066c8:	83 28 60 08 	sll  %g1, 8, %g1
 60066cc:	84 10 80 03 	or  %g2, %g3, %g2
 60066d0:	90 10 20 00 	clr  %o0
 60066d4:	82 10 40 02 	or  %g1, %g2, %g1
 60066d8:	7f ff fe a8 	call  6006178 <usb_bk_error>
 60066dc:	92 12 40 01 	or  %o1, %g1, %o1
 60066e0:	7f ff ff d8 	call  6006640 <usb_bk_csw>
 60066e4:	81 e8 00 00 	restore 
 60066e8:	d2 08 60 3c 	ldub  [ %g1 + 0x3c ], %o1
 60066ec:	d4 08 60 3d 	ldub  [ %g1 + 0x3d ], %o2
 60066f0:	c4 08 60 3e 	ldub  [ %g1 + 0x3e ], %g2
 60066f4:	d6 08 60 3f 	ldub  [ %g1 + 0x3f ], %o3
 60066f8:	d8 08 60 08 	ldub  [ %g1 + 8 ], %o4
 60066fc:	da 08 60 09 	ldub  [ %g1 + 9 ], %o5
 6006700:	c6 08 60 0a 	ldub  [ %g1 + 0xa ], %g3
 6006704:	c8 08 60 0b 	ldub  [ %g1 + 0xb ], %g4
 6006708:	93 2a 60 18 	sll  %o1, 0x18, %o1
 600670c:	95 2a a0 10 	sll  %o2, 0x10, %o2
 6006710:	85 28 a0 08 	sll  %g2, 8, %g2
 6006714:	94 12 80 09 	or  %o2, %o1, %o2
 6006718:	99 2b 20 18 	sll  %o4, 0x18, %o4
 600671c:	84 10 80 0a 	or  %g2, %o2, %g2
 6006720:	9b 2b 60 10 	sll  %o5, 0x10, %o5
 6006724:	84 12 c0 02 	or  %o3, %g2, %g2
 6006728:	9a 13 40 0c 	or  %o5, %o4, %o5
 600672c:	87 28 e0 08 	sll  %g3, 8, %g3
 6006730:	86 10 c0 0d 	or  %g3, %o5, %g3
 6006734:	86 11 00 03 	or  %g4, %g3, %g3
 6006738:	80 a0 80 03 	cmp  %g2, %g3
 600673c:	38 80 00 02 	bgu,a   6006744 <usb_bk_in+0xe0>
 6006740:	84 10 00 03 	mov  %g3, %g2
 6006744:	9b 30 a0 18 	srl  %g2, 0x18, %o5
 6006748:	89 30 a0 10 	srl  %g2, 0x10, %g4
 600674c:	87 30 a0 08 	srl  %g2, 8, %g3
 6006750:	92 10 00 02 	mov  %g2, %o1
 6006754:	90 10 20 00 	clr  %o0
 6006758:	da 28 60 3c 	stb  %o5, [ %g1 + 0x3c ]
 600675c:	c8 28 60 3d 	stb  %g4, [ %g1 + 0x3d ]
 6006760:	c6 28 60 3e 	stb  %g3, [ %g1 + 0x3e ]
 6006764:	7f ff fe 85 	call  6006178 <usb_bk_error>
 6006768:	c4 28 60 3f 	stb  %g2, [ %g1 + 0x3f ]
 600676c:	7f ff ff 2e 	call  6006424 <usb_bk_in_data>
 6006770:	81 e8 00 00 	restore 
 6006774:	7f ff ff 2c 	call  6006424 <usb_bk_in_data>
 6006778:	81 e8 00 00 	restore 
 600677c:	90 10 20 01 	mov  1, %o0
 6006780:	7f ff fe 7e 	call  6006178 <usb_bk_error>
 6006784:	92 10 20 00 	clr  %o1
 6006788:	7f ff ff ae 	call  6006640 <usb_bk_csw>
 600678c:	81 e8 00 00 	restore 
 6006790:	05 03 40 02 	sethi  %hi(0xd000800), %g2
 6006794:	c4 00 a1 5c 	ld  [ %g2 + 0x15c ], %g2	! d00095c <pUsbDevReg>
 6006798:	86 10 20 04 	mov  4, %g3
 600679c:	c6 28 60 1f 	stb  %g3, [ %g1 + 0x1f ]
 60067a0:	82 10 20 10 	mov  0x10, %g1
 60067a4:	c2 20 a0 ec 	st  %g1, [ %g2 + 0xec ]
 60067a8:	81 c7 e0 08 	ret 
 60067ac:	81 e8 00 00 	restore 

060067b0 <usb_scsi>:
 60067b0:	9d e3 bf a0 	save  %sp, -96, %sp
 60067b4:	23 03 40 00 	sethi  %hi(0xd000000), %l1
 60067b8:	a2 14 60 48 	or  %l1, 0x48, %l1	! d000048 <bk>
 60067bc:	84 10 20 05 	mov  5, %g2
 60067c0:	c2 0c 60 0f 	ldub  [ %l1 + 0xf ], %g1
 60067c4:	c4 2c 60 1f 	stb  %g2, [ %l1 + 0x1f ]
 60067c8:	c0 2c 60 30 	clrb  [ %l1 + 0x30 ]
 60067cc:	c0 2c 60 31 	clrb  [ %l1 + 0x31 ]
 60067d0:	c0 2c 60 32 	clrb  [ %l1 + 0x32 ]
 60067d4:	c0 2c 60 33 	clrb  [ %l1 + 0x33 ]
 60067d8:	c0 2c 60 34 	clrb  [ %l1 + 0x34 ]
 60067dc:	c0 2c 60 35 	clrb  [ %l1 + 0x35 ]
 60067e0:	c0 2c 60 36 	clrb  [ %l1 + 0x36 ]
 60067e4:	c0 2c 60 37 	clrb  [ %l1 + 0x37 ]
 60067e8:	c0 2c 60 3c 	clrb  [ %l1 + 0x3c ]
 60067ec:	c0 2c 60 3d 	clrb  [ %l1 + 0x3d ]
 60067f0:	c0 2c 60 3e 	clrb  [ %l1 + 0x3e ]
 60067f4:	c0 2c 60 3f 	clrb  [ %l1 + 0x3f ]
 60067f8:	c0 2c 60 40 	clrb  [ %l1 + 0x40 ]
 60067fc:	c0 2c 60 41 	clrb  [ %l1 + 0x41 ]
 6006800:	c0 2c 60 42 	clrb  [ %l1 + 0x42 ]
 6006804:	80 a0 60 5a 	cmp  %g1, 0x5a
 6006808:	08 80 00 12 	bleu  6006850 <usb_scsi+0xa0>
 600680c:	c0 2c 60 43 	clrb  [ %l1 + 0x43 ]
 6006810:	c8 0c 60 08 	ldub  [ %l1 + 8 ], %g4
 6006814:	c6 0c 60 09 	ldub  [ %l1 + 9 ], %g3
 6006818:	c2 0c 60 0a 	ldub  [ %l1 + 0xa ], %g1
 600681c:	c4 0c 60 0b 	ldub  [ %l1 + 0xb ], %g2
 6006820:	89 29 20 18 	sll  %g4, 0x18, %g4
 6006824:	87 28 e0 10 	sll  %g3, 0x10, %g3
 6006828:	83 28 60 08 	sll  %g1, 8, %g1
 600682c:	86 10 c0 04 	or  %g3, %g4, %g3
 6006830:	82 10 40 03 	or  %g1, %g3, %g1
 6006834:	80 90 80 01 	orcc  %g2, %g1, %g0
 6006838:	12 80 00 75 	bne  6006a0c <usb_scsi+0x25c>
 600683c:	a0 10 00 11 	mov  %l1, %l0
 6006840:	82 10 20 07 	mov  7, %g1
 6006844:	c2 2c 60 1f 	stb  %g1, [ %l1 + 0x1f ]
 6006848:	81 c7 e0 08 	ret 
 600684c:	81 e8 00 00 	restore 
 6006850:	83 28 60 02 	sll  %g1, 2, %g1
 6006854:	05 01 80 14 	sethi  %hi(0x6005000), %g2
 6006858:	84 10 a0 58 	or  %g2, 0x58, %g2	! 6005058 <nandFlashWrite+0xe4>
 600685c:	c2 00 80 01 	ld  [ %g2 + %g1 ], %g1
 6006860:	81 c0 40 00 	jmp  %g1
 6006864:	01 00 00 00 	nop 
 6006868:	19 03 40 02 	sethi  %hi(0xd000800), %o4
 600686c:	03 03 40 00 	sethi  %hi(0xd000000), %g1
 6006870:	82 10 60 57 	or  %g1, 0x57, %g1	! d000057 <bk+0xf>
 6006874:	c8 08 60 02 	ldub  [ %g1 + 2 ], %g4
 6006878:	da 08 60 03 	ldub  [ %g1 + 3 ], %o5
 600687c:	d2 08 60 08 	ldub  [ %g1 + 8 ], %o1
 6006880:	d0 08 60 04 	ldub  [ %g1 + 4 ], %o0
 6006884:	c6 08 60 05 	ldub  [ %g1 + 5 ], %g3
 6006888:	c4 08 60 07 	ldub  [ %g1 + 7 ], %g2
 600688c:	89 29 20 18 	sll  %g4, 0x18, %g4
 6006890:	c2 23 21 58 	st  %g1, [ %o4 + 0x158 ]
 6006894:	83 2b 60 10 	sll  %o5, 0x10, %g1
 6006898:	82 10 40 04 	or  %g1, %g4, %g1
 600689c:	91 2a 20 08 	sll  %o0, 8, %o0
 60068a0:	90 12 00 01 	or  %o0, %g1, %o0
 60068a4:	83 28 a0 08 	sll  %g2, 8, %g1
 60068a8:	90 10 c0 08 	or  %g3, %o0, %o0
 60068ac:	92 12 40 01 	or  %o1, %g1, %o1
 60068b0:	90 02 23 00 	add  %o0, 0x300, %o0
 60068b4:	7f ff f9 b0 	call  6004f74 <nandFlashWrite>
 60068b8:	91 2a 20 0c 	sll  %o0, 0xc, %o0
 60068bc:	82 10 20 07 	mov  7, %g1
 60068c0:	c2 2c 60 1f 	stb  %g1, [ %l1 + 0x1f ]
 60068c4:	81 c7 e0 08 	ret 
 60068c8:	81 e8 00 00 	restore 
 60068cc:	03 01 80 1d 	sethi  %hi(0x6007400), %g1
 60068d0:	9a 10 20 12 	mov  0x12, %o5
 60068d4:	82 10 60 90 	or  %g1, 0x90, %g1
 60068d8:	89 30 60 18 	srl  %g1, 0x18, %g4
 60068dc:	87 30 60 10 	srl  %g1, 0x10, %g3
 60068e0:	85 30 60 08 	srl  %g1, 8, %g2
 60068e4:	da 2c 60 3f 	stb  %o5, [ %l1 + 0x3f ]
 60068e8:	c8 2c 60 44 	stb  %g4, [ %l1 + 0x44 ]
 60068ec:	c6 2c 60 45 	stb  %g3, [ %l1 + 0x45 ]
 60068f0:	c4 2c 60 46 	stb  %g2, [ %l1 + 0x46 ]
 60068f4:	c2 2c 60 47 	stb  %g1, [ %l1 + 0x47 ]
 60068f8:	c0 2c 60 3c 	clrb  [ %l1 + 0x3c ]
 60068fc:	c0 2c 60 3d 	clrb  [ %l1 + 0x3d ]
 6006900:	c0 2c 60 3e 	clrb  [ %l1 + 0x3e ]
 6006904:	81 c7 e0 08 	ret 
 6006908:	81 e8 00 00 	restore 
 600690c:	03 01 80 1d 	sethi  %hi(0x6007400), %g1
 6006910:	9a 10 20 24 	mov  0x24, %o5
 6006914:	82 10 60 58 	or  %g1, 0x58, %g1
 6006918:	89 30 60 18 	srl  %g1, 0x18, %g4
 600691c:	87 30 60 10 	srl  %g1, 0x10, %g3
 6006920:	10 bf ff f1 	b  60068e4 <usb_scsi+0x134>
 6006924:	85 30 60 08 	srl  %g1, 8, %g2
 6006928:	03 01 80 1d 	sethi  %hi(0x6007400), %g1
 600692c:	9a 10 20 04 	mov  4, %o5
 6006930:	82 10 60 80 	or  %g1, 0x80, %g1
 6006934:	89 30 60 18 	srl  %g1, 0x18, %g4
 6006938:	87 30 60 10 	srl  %g1, 0x10, %g3
 600693c:	10 bf ff ea 	b  60068e4 <usb_scsi+0x134>
 6006940:	85 30 60 08 	srl  %g1, 8, %g2
 6006944:	03 01 80 1d 	sethi  %hi(0x6007400), %g1
 6006948:	9a 10 20 04 	mov  4, %o5
 600694c:	82 10 60 88 	or  %g1, 0x88, %g1
 6006950:	89 30 60 18 	srl  %g1, 0x18, %g4
 6006954:	87 30 60 10 	srl  %g1, 0x10, %g3
 6006958:	10 bf ff e3 	b  60068e4 <usb_scsi+0x134>
 600695c:	85 30 60 08 	srl  %g1, 8, %g2
 6006960:	82 10 20 08 	mov  8, %g1
 6006964:	c2 2c 60 1f 	stb  %g1, [ %l1 + 0x1f ]
 6006968:	81 c7 e0 08 	ret 
 600696c:	81 e8 00 00 	restore 
 6006970:	03 01 80 1d 	sethi  %hi(0x6007400), %g1
 6006974:	9a 10 20 0c 	mov  0xc, %o5
 6006978:	82 10 60 b0 	or  %g1, 0xb0, %g1
 600697c:	89 30 60 18 	srl  %g1, 0x18, %g4
 6006980:	87 30 60 10 	srl  %g1, 0x10, %g3
 6006984:	10 bf ff d8 	b  60068e4 <usb_scsi+0x134>
 6006988:	85 30 60 08 	srl  %g1, 8, %g2
 600698c:	03 01 80 1d 	sethi  %hi(0x6007400), %g1
 6006990:	9a 10 20 08 	mov  8, %o5
 6006994:	82 10 60 a8 	or  %g1, 0xa8, %g1
 6006998:	89 30 60 18 	srl  %g1, 0x18, %g4
 600699c:	87 30 60 10 	srl  %g1, 0x10, %g3
 60069a0:	10 bf ff d1 	b  60068e4 <usb_scsi+0x134>
 60069a4:	85 30 60 08 	srl  %g1, 8, %g2
 60069a8:	c2 0c 60 16 	ldub  [ %l1 + 0x16 ], %g1
 60069ac:	d2 0c 60 17 	ldub  [ %l1 + 0x17 ], %o1
 60069b0:	83 28 60 08 	sll  %g1, 8, %g1
 60069b4:	92 12 40 01 	or  %o1, %g1, %o1
 60069b8:	03 03 40 02 	sethi  %hi(0xd000800), %g1
 60069bc:	c4 0c 60 14 	ldub  [ %l1 + 0x14 ], %g2
 60069c0:	c8 0c 60 11 	ldub  [ %l1 + 0x11 ], %g4
 60069c4:	c6 0c 60 12 	ldub  [ %l1 + 0x12 ], %g3
 60069c8:	d0 0c 60 13 	ldub  [ %l1 + 0x13 ], %o0
 60069cc:	89 29 20 18 	sll  %g4, 0x18, %g4
 60069d0:	87 28 e0 10 	sll  %g3, 0x10, %g3
 60069d4:	91 2a 20 08 	sll  %o0, 8, %o0
 60069d8:	86 10 c0 04 	or  %g3, %g4, %g3
 60069dc:	90 12 00 03 	or  %o0, %g3, %o0
 60069e0:	90 10 80 08 	or  %g2, %o0, %o0
 60069e4:	05 03 40 00 	sethi  %hi(0xd000000), %g2
 60069e8:	84 10 a0 57 	or  %g2, 0x57, %g2	! d000057 <bk+0xf>
 60069ec:	90 02 23 00 	add  %o0, 0x300, %o0
 60069f0:	c4 20 61 54 	st  %g2, [ %g1 + 0x154 ]
 60069f4:	7f ff f9 3c 	call  6004ee4 <nandFlashRead>
 60069f8:	91 2a 20 0c 	sll  %o0, 0xc, %o0
 60069fc:	82 10 20 07 	mov  7, %g1
 6006a00:	c2 2c 60 1f 	stb  %g1, [ %l1 + 0x1f ]
 6006a04:	81 c7 e0 08 	ret 
 6006a08:	81 e8 00 00 	restore 
 6006a0c:	23 03 40 00 	sethi  %hi(0xd000000), %l1
 6006a10:	92 10 20 00 	clr  %o1
 6006a14:	90 14 60 c8 	or  %l1, 0xc8, %o0
 6006a18:	7f ff e8 d0 	call  6000d58 <memset8>
 6006a1c:	94 10 28 00 	mov  0x800, %o2
 6006a20:	a2 14 60 c8 	or  %l1, 0xc8, %l1
 6006a24:	87 34 60 18 	srl  %l1, 0x18, %g3
 6006a28:	85 34 60 10 	srl  %l1, 0x10, %g2
 6006a2c:	83 34 60 08 	srl  %l1, 8, %g1
 6006a30:	c6 2c 20 44 	stb  %g3, [ %l0 + 0x44 ]
 6006a34:	c4 2c 20 45 	stb  %g2, [ %l0 + 0x45 ]
 6006a38:	c2 2c 20 46 	stb  %g1, [ %l0 + 0x46 ]
 6006a3c:	c8 0c 20 09 	ldub  [ %l0 + 9 ], %g4
 6006a40:	c2 0c 20 08 	ldub  [ %l0 + 8 ], %g1
 6006a44:	c6 0c 20 0a 	ldub  [ %l0 + 0xa ], %g3
 6006a48:	c4 0c 20 0b 	ldub  [ %l0 + 0xb ], %g2
 6006a4c:	83 28 60 18 	sll  %g1, 0x18, %g1
 6006a50:	89 29 20 10 	sll  %g4, 0x10, %g4
 6006a54:	87 28 e0 08 	sll  %g3, 8, %g3
 6006a58:	82 11 00 01 	or  %g4, %g1, %g1
 6006a5c:	82 10 c0 01 	or  %g3, %g1, %g1
 6006a60:	82 10 80 01 	or  %g2, %g1, %g1
 6006a64:	80 a0 68 00 	cmp  %g1, 0x800
 6006a68:	08 80 00 03 	bleu  6006a74 <usb_scsi+0x2c4>
 6006a6c:	e2 2c 20 47 	stb  %l1, [ %l0 + 0x47 ]
 6006a70:	82 10 28 00 	mov  0x800, %g1
 6006a74:	89 30 60 18 	srl  %g1, 0x18, %g4
 6006a78:	87 30 60 10 	srl  %g1, 0x10, %g3
 6006a7c:	85 30 60 08 	srl  %g1, 8, %g2
 6006a80:	c2 2c 20 3f 	stb  %g1, [ %l0 + 0x3f ]
 6006a84:	c8 2c 20 3c 	stb  %g4, [ %l0 + 0x3c ]
 6006a88:	c6 2c 20 3d 	stb  %g3, [ %l0 + 0x3d ]
 6006a8c:	c4 2c 20 3e 	stb  %g2, [ %l0 + 0x3e ]
 6006a90:	81 c7 e0 08 	ret 
 6006a94:	81 e8 00 00 	restore 

06006a98 <usb_bk_cbw>:
 6006a98:	9d e3 bf a0 	save  %sp, -96, %sp
 6006a9c:	21 03 40 00 	sethi  %hi(0xd000000), %l0
 6006aa0:	92 10 20 1f 	mov  0x1f, %o1
 6006aa4:	7f ff f9 e3 	call  6005230 <usb_dev_ep3_rx>
 6006aa8:	90 14 20 48 	or  %l0, 0x48, %o0
 6006aac:	82 14 20 48 	or  %l0, 0x48, %g1
 6006ab0:	c4 08 60 0b 	ldub  [ %g1 + 0xb ], %g2
 6006ab4:	d8 08 60 08 	ldub  [ %g1 + 8 ], %o4
 6006ab8:	da 08 60 09 	ldub  [ %g1 + 9 ], %o5
 6006abc:	c8 08 60 0a 	ldub  [ %g1 + 0xa ], %g4
 6006ac0:	d6 08 60 07 	ldub  [ %g1 + 7 ], %o3
 6006ac4:	d2 08 60 04 	ldub  [ %g1 + 4 ], %o1
 6006ac8:	d4 08 60 05 	ldub  [ %g1 + 5 ], %o2
 6006acc:	c6 08 60 06 	ldub  [ %g1 + 6 ], %g3
 6006ad0:	93 2a 60 18 	sll  %o1, 0x18, %o1
 6006ad4:	99 2b 20 18 	sll  %o4, 0x18, %o4
 6006ad8:	9e 10 20 55 	mov  0x55, %o7
 6006adc:	95 2a a0 10 	sll  %o2, 0x10, %o2
 6006ae0:	87 28 e0 08 	sll  %g3, 8, %g3
 6006ae4:	94 12 80 09 	or  %o2, %o1, %o2
 6006ae8:	9b 2b 60 10 	sll  %o5, 0x10, %o5
 6006aec:	86 10 c0 0a 	or  %g3, %o2, %g3
 6006af0:	9a 13 40 0c 	or  %o5, %o4, %o5
 6006af4:	86 12 c0 03 	or  %o3, %g3, %g3
 6006af8:	89 29 20 08 	sll  %g4, 8, %g4
 6006afc:	88 11 00 0d 	or  %g4, %o5, %g4
 6006b00:	88 10 80 04 	or  %g2, %g4, %g4
 6006b04:	97 29 20 18 	sll  %g4, 0x18, %o3
 6006b08:	99 29 20 08 	sll  %g4, 8, %o4
 6006b0c:	85 31 20 18 	srl  %g4, 0x18, %g2
 6006b10:	89 31 20 08 	srl  %g4, 8, %g4
 6006b14:	84 12 c0 02 	or  %o3, %g2, %g2
 6006b18:	17 00 00 3f 	sethi  %hi(0xfc00), %o3
 6006b1c:	96 12 e3 00 	or  %o3, 0x300, %o3	! ff00 <RAM_LENGTH+0x8f00>
 6006b20:	88 09 00 0b 	and  %g4, %o3, %g4
 6006b24:	84 10 80 04 	or  %g2, %g4, %g2
 6006b28:	09 00 3f c0 	sethi  %hi(0xff0000), %g4
 6006b2c:	98 0b 00 04 	and  %o4, %g4, %o4
 6006b30:	9a 10 20 53 	mov  0x53, %o5
 6006b34:	84 10 80 0c 	or  %g2, %o4, %g2
 6006b38:	91 30 e0 18 	srl  %g3, 0x18, %o0
 6006b3c:	99 30 a0 10 	srl  %g2, 0x10, %o4
 6006b40:	89 30 a0 08 	srl  %g2, 8, %g4
 6006b44:	93 30 e0 10 	srl  %g3, 0x10, %o1
 6006b48:	95 30 e0 08 	srl  %g3, 8, %o2
 6006b4c:	97 30 a0 18 	srl  %g2, 0x18, %o3
 6006b50:	de 28 60 20 	stb  %o7, [ %g1 + 0x20 ]
 6006b54:	9e 10 20 42 	mov  0x42, %o7
 6006b58:	da 28 60 23 	stb  %o5, [ %g1 + 0x23 ]
 6006b5c:	c6 28 60 27 	stb  %g3, [ %g1 + 0x27 ]
 6006b60:	c8 28 60 0a 	stb  %g4, [ %g1 + 0xa ]
 6006b64:	c4 28 60 0b 	stb  %g2, [ %g1 + 0xb ]
 6006b68:	de 28 60 22 	stb  %o7, [ %g1 + 0x22 ]
 6006b6c:	d0 28 60 24 	stb  %o0, [ %g1 + 0x24 ]
 6006b70:	d2 28 60 25 	stb  %o1, [ %g1 + 0x25 ]
 6006b74:	d4 28 60 26 	stb  %o2, [ %g1 + 0x26 ]
 6006b78:	d6 28 60 08 	stb  %o3, [ %g1 + 8 ]
 6006b7c:	d8 28 60 09 	stb  %o4, [ %g1 + 9 ]
 6006b80:	c4 08 60 03 	ldub  [ %g1 + 3 ], %g2
 6006b84:	c8 08 60 01 	ldub  [ %g1 + 1 ], %g4
 6006b88:	d8 0c 20 48 	ldub  [ %l0 + 0x48 ], %o4
 6006b8c:	c6 08 60 02 	ldub  [ %g1 + 2 ], %g3
 6006b90:	da 28 60 21 	stb  %o5, [ %g1 + 0x21 ]
 6006b94:	89 29 20 10 	sll  %g4, 0x10, %g4
 6006b98:	9b 2b 20 18 	sll  %o4, 0x18, %o5
 6006b9c:	87 28 e0 08 	sll  %g3, 8, %g3
 6006ba0:	88 11 00 0d 	or  %g4, %o5, %g4
 6006ba4:	86 10 c0 04 	or  %g3, %g4, %g3
 6006ba8:	86 10 80 03 	or  %g2, %g3, %g3
 6006bac:	05 15 54 d0 	sethi  %hi(0x55534000), %g2
 6006bb0:	84 10 a2 43 	or  %g2, 0x243, %g2	! 55534243 <RAM_END+0x4852d243>
 6006bb4:	80 a0 c0 02 	cmp  %g3, %g2
 6006bb8:	22 80 00 04 	be,a   6006bc8 <usb_bk_cbw+0x130>
 6006bbc:	c2 08 60 0e 	ldub  [ %g1 + 0xe ], %g1
 6006bc0:	81 c7 e0 08 	ret 
 6006bc4:	81 e8 00 00 	restore 
 6006bc8:	80 a0 60 10 	cmp  %g1, 0x10
 6006bcc:	18 bf ff fd 	bgu  6006bc0 <usb_bk_cbw+0x128>
 6006bd0:	01 00 00 00 	nop 
 6006bd4:	7f ff fe f7 	call  60067b0 <usb_scsi>
 6006bd8:	81 e8 00 00 	restore 
 6006bdc:	01 00 00 00 	nop 

06006be0 <usb_bk_out>:
 6006be0:	9d e3 bf a0 	save  %sp, -96, %sp
 6006be4:	03 03 40 00 	sethi  %hi(0xd000000), %g1
 6006be8:	c2 08 60 67 	ldub  [ %g1 + 0x67 ], %g1	! d000067 <bk+0x1f>
 6006bec:	80 a0 60 00 	cmp  %g1, 0
 6006bf0:	12 80 00 11 	bne  6006c34 <usb_bk_out+0x54>
 6006bf4:	80 a0 60 01 	cmp  %g1, 1
 6006bf8:	7f ff ff a8 	call  6006a98 <usb_bk_cbw>
 6006bfc:	01 00 00 00 	nop 
 6006c00:	03 03 40 00 	sethi  %hi(0xd000000), %g1
 6006c04:	c4 00 60 b8 	ld  [ %g1 + 0xb8 ], %g2	! d0000b8 <pUsbCptReg>
 6006c08:	07 00 00 40 	sethi  %hi(0x10000), %g3
 6006c0c:	c2 00 a2 00 	ld  [ %g2 + 0x200 ], %g1
 6006c10:	80 88 40 03 	btst  %g1, %g3
 6006c14:	12 bf ff fe 	bne  6006c0c <usb_bk_out+0x2c>
 6006c18:	01 00 00 00 	nop 
 6006c1c:	c6 00 a2 00 	ld  [ %g2 + 0x200 ], %g3
 6006c20:	03 00 00 40 	sethi  %hi(0x10000), %g1
 6006c24:	82 10 c0 01 	or  %g3, %g1, %g1
 6006c28:	c2 20 a2 00 	st  %g1, [ %g2 + 0x200 ]
 6006c2c:	81 c7 e0 08 	ret 
 6006c30:	81 e8 00 00 	restore 
 6006c34:	32 bf ff f4 	bne,a   6006c04 <usb_bk_out+0x24>
 6006c38:	03 03 40 00 	sethi  %hi(0xd000000), %g1
 6006c3c:	7f ff fd 73 	call  6006208 <usb_bk_out_data>
 6006c40:	01 00 00 00 	nop 
 6006c44:	10 bf ff f0 	b  6006c04 <usb_bk_out+0x24>
 6006c48:	03 03 40 00 	sethi  %hi(0xd000000), %g1

06006c4c <usb_bk_reset_in>:
 6006c4c:	03 03 40 00 	sethi  %hi(0xd000000), %g1
 6006c50:	82 10 60 48 	or  %g1, 0x48, %g1	! d000048 <bk>
 6006c54:	c8 08 60 44 	ldub  [ %g1 + 0x44 ], %g4
 6006c58:	c6 08 60 45 	ldub  [ %g1 + 0x45 ], %g3
 6006c5c:	c4 08 60 46 	ldub  [ %g1 + 0x46 ], %g2
 6006c60:	d0 08 60 47 	ldub  [ %g1 + 0x47 ], %o0
 6006c64:	89 29 20 18 	sll  %g4, 0x18, %g4
 6006c68:	87 28 e0 10 	sll  %g3, 0x10, %g3
 6006c6c:	85 28 a0 08 	sll  %g2, 8, %g2
 6006c70:	86 10 c0 04 	or  %g3, %g4, %g3
 6006c74:	84 10 80 03 	or  %g2, %g3, %g2
 6006c78:	c0 28 60 40 	clrb  [ %g1 + 0x40 ]
 6006c7c:	90 12 00 02 	or  %o0, %g2, %o0
 6006c80:	c0 28 60 41 	clrb  [ %g1 + 0x41 ]
 6006c84:	c0 28 60 42 	clrb  [ %g1 + 0x42 ]
 6006c88:	c0 28 60 43 	clrb  [ %g1 + 0x43 ]
 6006c8c:	c0 28 60 3c 	clrb  [ %g1 + 0x3c ]
 6006c90:	c0 28 60 3d 	clrb  [ %g1 + 0x3d ]
 6006c94:	c0 28 60 3e 	clrb  [ %g1 + 0x3e ]
 6006c98:	c0 28 60 3f 	clrb  [ %g1 + 0x3f ]
 6006c9c:	92 10 20 00 	clr  %o1
 6006ca0:	94 10 28 00 	mov  0x800, %o2
 6006ca4:	82 13 c0 00 	mov  %o7, %g1
 6006ca8:	7f ff e8 2c 	call  6000d58 <memset8>
 6006cac:	9e 10 40 00 	mov  %g1, %o7
 6006cb0:	01 00 00 00 	nop 

06006cb4 <usb_bk_reset_out>:
 6006cb4:	03 03 40 00 	sethi  %hi(0xd000000), %g1
 6006cb8:	82 10 60 48 	or  %g1, 0x48, %g1	! d000048 <bk>
 6006cbc:	c8 08 60 38 	ldub  [ %g1 + 0x38 ], %g4
 6006cc0:	c6 08 60 39 	ldub  [ %g1 + 0x39 ], %g3
 6006cc4:	c4 08 60 3a 	ldub  [ %g1 + 0x3a ], %g2
 6006cc8:	d0 08 60 3b 	ldub  [ %g1 + 0x3b ], %o0
 6006ccc:	89 29 20 18 	sll  %g4, 0x18, %g4
 6006cd0:	87 28 e0 10 	sll  %g3, 0x10, %g3
 6006cd4:	85 28 a0 08 	sll  %g2, 8, %g2
 6006cd8:	86 10 c0 04 	or  %g3, %g4, %g3
 6006cdc:	84 10 80 03 	or  %g2, %g3, %g2
 6006ce0:	c0 28 60 34 	clrb  [ %g1 + 0x34 ]
 6006ce4:	90 12 00 02 	or  %o0, %g2, %o0
 6006ce8:	c0 28 60 35 	clrb  [ %g1 + 0x35 ]
 6006cec:	c0 28 60 36 	clrb  [ %g1 + 0x36 ]
 6006cf0:	c0 28 60 37 	clrb  [ %g1 + 0x37 ]
 6006cf4:	c0 28 60 30 	clrb  [ %g1 + 0x30 ]
 6006cf8:	c0 28 60 31 	clrb  [ %g1 + 0x31 ]
 6006cfc:	c0 28 60 32 	clrb  [ %g1 + 0x32 ]
 6006d00:	c0 28 60 33 	clrb  [ %g1 + 0x33 ]
 6006d04:	92 10 20 00 	clr  %o1
 6006d08:	94 10 28 00 	mov  0x800, %o2
 6006d0c:	82 13 c0 00 	mov  %o7, %g1
 6006d10:	7f ff e8 12 	call  6000d58 <memset8>
 6006d14:	9e 10 40 00 	mov  %g1, %o7
 6006d18:	01 00 00 00 	nop 

06006d1c <usb_dev_init>:
 6006d1c:	9d e3 bf a0 	save  %sp, -96, %sp
 6006d20:	03 03 40 02 	sethi  %hi(0xd000800), %g1
 6006d24:	c2 00 61 5c 	ld  [ %g1 + 0x15c ], %g1	! d00095c <pUsbDevReg>
 6006d28:	86 10 20 33 	mov  0x33, %g3
 6006d2c:	84 10 20 4e 	mov  0x4e, %g2
 6006d30:	88 10 21 00 	mov  0x100, %g4
 6006d34:	c6 20 60 08 	st  %g3, [ %g1 + 8 ]
 6006d38:	c0 20 60 0c 	clr  [ %g1 + 0xc ]
 6006d3c:	c4 20 60 14 	st  %g2, [ %g1 + 0x14 ]
 6006d40:	84 10 20 06 	mov  6, %g2
 6006d44:	c4 20 60 18 	st  %g2, [ %g1 + 0x18 ]
 6006d48:	c0 20 60 20 	clr  [ %g1 + 0x20 ]
 6006d4c:	84 10 26 0a 	mov  0x60a, %g2
 6006d50:	c4 20 60 30 	st  %g2, [ %g1 + 0x30 ]
 6006d54:	c0 20 60 54 	clr  [ %g1 + 0x54 ]
 6006d58:	84 10 20 1f 	mov  0x1f, %g2
 6006d5c:	c4 20 60 58 	st  %g2, [ %g1 + 0x58 ]
 6006d60:	84 10 22 00 	mov  0x200, %g2
 6006d64:	da 00 60 34 	ld  [ %g1 + 0x34 ], %o5
 6006d68:	d8 00 60 34 	ld  [ %g1 + 0x34 ], %o4
 6006d6c:	9a 13 00 0d 	or  %o4, %o5, %o5
 6006d70:	da 20 60 34 	st  %o5, [ %g1 + 0x34 ]
 6006d74:	c0 20 60 bc 	clr  [ %g1 + 0xbc ]
 6006d78:	c0 20 60 c4 	clr  [ %g1 + 0xc4 ]
 6006d7c:	c4 20 60 c8 	st  %g2, [ %g1 + 0xc8 ]
 6006d80:	c6 20 60 d0 	st  %g3, [ %g1 + 0xd0 ]
 6006d84:	c8 20 60 d4 	st  %g4, [ %g1 + 0xd4 ]
 6006d88:	86 10 21 ff 	mov  0x1ff, %g3
 6006d8c:	c6 20 60 d8 	st  %g3, [ %g1 + 0xd8 ]
 6006d90:	9a 10 22 40 	mov  0x240, %o5
 6006d94:	da 20 60 e4 	st  %o5, [ %g1 + 0xe4 ]
 6006d98:	9a 10 20 02 	mov  2, %o5
 6006d9c:	da 20 60 ec 	st  %o5, [ %g1 + 0xec ]
 6006da0:	c4 20 60 f0 	st  %g2, [ %g1 + 0xf0 ]
 6006da4:	05 03 40 00 	sethi  %hi(0xd000000), %g2
 6006da8:	c4 00 a0 b8 	ld  [ %g2 + 0xb8 ], %g2	! d0000b8 <pUsbCptReg>
 6006dac:	9a 10 20 4b 	mov  0x4b, %o5
 6006db0:	da 20 60 f8 	st  %o5, [ %g1 + 0xf8 ]
 6006db4:	c8 20 60 fc 	st  %g4, [ %g1 + 0xfc ]
 6006db8:	c6 20 61 00 	st  %g3, [ %g1 + 0x100 ]
 6006dbc:	82 10 20 04 	mov  4, %g1
 6006dc0:	c2 20 a2 00 	st  %g1, [ %g2 + 0x200 ]
 6006dc4:	03 00 00 10 	sethi  %hi(0x4000), %g1
 6006dc8:	c2 20 a0 c0 	st  %g1, [ %g2 + 0xc0 ]
 6006dcc:	c2 20 a1 00 	st  %g1, [ %g2 + 0x100 ]
 6006dd0:	82 10 20 95 	mov  0x95, %g1
 6006dd4:	c2 20 a0 c0 	st  %g1, [ %g2 + 0xc0 ]
 6006dd8:	82 10 20 8d 	mov  0x8d, %g1
 6006ddc:	c2 20 a1 00 	st  %g1, [ %g2 + 0x100 ]
 6006de0:	03 00 00 40 	sethi  %hi(0x10000), %g1
 6006de4:	c6 00 a2 00 	ld  [ %g2 + 0x200 ], %g3
 6006de8:	82 10 c0 01 	or  %g3, %g1, %g1
 6006dec:	c2 20 a2 00 	st  %g1, [ %g2 + 0x200 ]
 6006df0:	03 03 40 02 	sethi  %hi(0xd000800), %g1
 6006df4:	c0 28 61 48 	clrb  [ %g1 + 0x148 ]	! d000948 <is_usb_enb>
 6006df8:	03 03 40 00 	sethi  %hi(0xd000000), %g1
 6006dfc:	c0 20 60 c0 	clr  [ %g1 + 0xc0 ]	! d0000c0 <usb_irq_stat>
 6006e00:	7f ff ff ad 	call  6006cb4 <usb_bk_reset_out>
 6006e04:	01 00 00 00 	nop 
 6006e08:	7f ff ff 91 	call  6006c4c <usb_bk_reset_in>
 6006e0c:	81 e8 00 00 	restore 
 6006e10:	01 00 00 00 	nop 

06006e14 <usb_dev_dsr>:
 6006e14:	9d e3 bf 98 	save  %sp, -104, %sp
 6006e18:	03 03 40 00 	sethi  %hi(0xd000000), %g1
 6006e1c:	c4 00 60 c0 	ld  [ %g1 + 0xc0 ], %g2	! d0000c0 <usb_irq_stat>
 6006e20:	80 88 a0 01 	btst  1, %g2
 6006e24:	02 80 00 19 	be  6006e88 <usb_dev_dsr+0x74>
 6006e28:	01 00 00 00 	nop 
 6006e2c:	03 03 40 02 	sethi  %hi(0xd000800), %g1
 6006e30:	c2 00 61 5c 	ld  [ %g1 + 0x15c ], %g1	! d00095c <pUsbDevReg>
 6006e34:	c4 00 60 10 	ld  [ %g1 + 0x10 ], %g2
 6006e38:	c4 27 bf fc 	st  %g2, [ %fp + -4 ]
 6006e3c:	c4 00 60 14 	ld  [ %g1 + 0x14 ], %g2
 6006e40:	c4 27 bf f8 	st  %g2, [ %fp + -8 ]
 6006e44:	c4 07 bf fc 	ld  [ %fp + -4 ], %g2
 6006e48:	c4 20 60 10 	st  %g2, [ %g1 + 0x10 ]
 6006e4c:	c4 07 bf fc 	ld  [ %fp + -4 ], %g2
 6006e50:	80 88 a0 40 	btst  0x40, %g2
 6006e54:	02 80 00 07 	be  6006e70 <usb_dev_dsr+0x5c>
 6006e58:	01 00 00 00 	nop 
 6006e5c:	21 03 40 02 	sethi  %hi(0xd000800), %l0
 6006e60:	c4 0c 21 48 	ldub  [ %l0 + 0x148 ], %g2	! d000948 <is_usb_enb>
 6006e64:	80 a0 a0 00 	cmp  %g2, 0
 6006e68:	02 80 00 59 	be  6006fcc <usb_dev_dsr+0x1b8>
 6006e6c:	01 00 00 00 	nop 
 6006e70:	c4 07 bf fc 	ld  [ %fp + -4 ], %g2
 6006e74:	80 88 a0 02 	btst  2, %g2
 6006e78:	12 80 00 39 	bne  6006f5c <usb_dev_dsr+0x148>
 6006e7c:	01 00 00 00 	nop 
 6006e80:	81 c7 e0 08 	ret 
 6006e84:	81 e8 00 00 	restore 
 6006e88:	c4 00 60 c0 	ld  [ %g1 + 0xc0 ], %g2
 6006e8c:	80 88 a0 02 	btst  2, %g2
 6006e90:	02 80 00 21 	be  6006f14 <usb_dev_dsr+0x100>
 6006e94:	01 00 00 00 	nop 
 6006e98:	03 03 40 02 	sethi  %hi(0xd000800), %g1
 6006e9c:	c2 00 61 5c 	ld  [ %g1 + 0x15c ], %g1	! d00095c <pUsbDevReg>
 6006ea0:	c4 00 60 34 	ld  [ %g1 + 0x34 ], %g2
 6006ea4:	c4 27 bf fc 	st  %g2, [ %fp + -4 ]
 6006ea8:	c4 00 60 30 	ld  [ %g1 + 0x30 ], %g2
 6006eac:	c4 27 bf f8 	st  %g2, [ %fp + -8 ]
 6006eb0:	c4 07 bf fc 	ld  [ %fp + -4 ], %g2
 6006eb4:	c4 20 60 34 	st  %g2, [ %g1 + 0x34 ]
 6006eb8:	c4 07 bf fc 	ld  [ %fp + -4 ], %g2
 6006ebc:	80 88 a2 00 	btst  0x200, %g2
 6006ec0:	12 80 00 4f 	bne  6006ffc <usb_dev_dsr+0x1e8>
 6006ec4:	84 10 20 02 	mov  2, %g2
 6006ec8:	c4 07 bf fc 	ld  [ %fp + -4 ], %g2
 6006ecc:	80 88 a0 02 	btst  2, %g2
 6006ed0:	12 80 00 4e 	bne  6007008 <usb_dev_dsr+0x1f4>
 6006ed4:	01 00 00 00 	nop 
 6006ed8:	c4 07 bf fc 	ld  [ %fp + -4 ], %g2
 6006edc:	80 88 a0 08 	btst  8, %g2
 6006ee0:	02 80 00 41 	be  6006fe4 <usb_dev_dsr+0x1d0>
 6006ee4:	01 00 00 00 	nop 
 6006ee8:	c4 07 bf fc 	ld  [ %fp + -4 ], %g2
 6006eec:	80 88 a4 00 	btst  0x400, %g2
 6006ef0:	12 80 00 3d 	bne  6006fe4 <usb_dev_dsr+0x1d0>
 6006ef4:	05 03 40 00 	sethi  %hi(0xd000000), %g2
 6006ef8:	c4 08 a0 b0 	ldub  [ %g2 + 0xb0 ], %g2	! d0000b0 <cep+0x18>
 6006efc:	80 a0 a0 01 	cmp  %g2, 1
 6006f00:	12 80 00 03 	bne  6006f0c <usb_dev_dsr+0xf8>
 6006f04:	84 10 20 02 	mov  2, %g2
 6006f08:	c4 20 60 2c 	st  %g2, [ %g1 + 0x2c ]
 6006f0c:	7f ff f9 8c 	call  600553c <usb_cep_sent>
 6006f10:	81 e8 00 00 	restore 
 6006f14:	c4 00 60 c0 	ld  [ %g1 + 0xc0 ], %g2
 6006f18:	80 88 a0 10 	btst  0x10, %g2
 6006f1c:	02 80 00 15 	be  6006f70 <usb_dev_dsr+0x15c>
 6006f20:	01 00 00 00 	nop 
 6006f24:	03 03 40 02 	sethi  %hi(0xd000800), %g1
 6006f28:	c2 00 61 5c 	ld  [ %g1 + 0x15c ], %g1	! d00095c <pUsbDevReg>
 6006f2c:	c4 00 60 b8 	ld  [ %g1 + 0xb8 ], %g2
 6006f30:	c4 27 bf fc 	st  %g2, [ %fp + -4 ]
 6006f34:	c4 07 bf fc 	ld  [ %fp + -4 ], %g2
 6006f38:	c4 20 60 b8 	st  %g2, [ %g1 + 0xb8 ]
 6006f3c:	c2 07 bf fc 	ld  [ %fp + -4 ], %g1
 6006f40:	80 88 60 10 	btst  0x10, %g1
 6006f44:	02 bf ff cf 	be  6006e80 <usb_dev_dsr+0x6c>
 6006f48:	03 02 00 01 	sethi  %hi(0x8000400), %g1
 6006f4c:	82 10 61 04 	or  %g1, 0x104, %g1	! 8000504 <text_end+0x1ff9044>
 6006f50:	05 00 00 10 	sethi  %hi(0x4000), %g2
 6006f54:	c4 20 40 00 	st  %g2, [ %g1 ]
 6006f58:	30 80 00 00 	b,a   6006f58 <usb_dev_dsr+0x144>
 6006f5c:	c0 20 60 20 	clr  [ %g1 + 0x20 ]
 6006f60:	7f ff ff 55 	call  6006cb4 <usb_bk_reset_out>
 6006f64:	01 00 00 00 	nop 
 6006f68:	7f ff ff 39 	call  6006c4c <usb_bk_reset_in>
 6006f6c:	81 e8 00 00 	restore 
 6006f70:	c2 00 60 c0 	ld  [ %g1 + 0xc0 ], %g1
 6006f74:	80 88 60 20 	btst  0x20, %g1
 6006f78:	02 bf ff c2 	be  6006e80 <usb_dev_dsr+0x6c>
 6006f7c:	03 03 40 00 	sethi  %hi(0xd000000), %g1
 6006f80:	c2 00 60 90 	ld  [ %g1 + 0x90 ], %g1	! d000090 <epInMask>
 6006f84:	80 a0 60 01 	cmp  %g1, 1
 6006f88:	12 bf ff be 	bne  6006e80 <usb_dev_dsr+0x6c>
 6006f8c:	03 03 40 02 	sethi  %hi(0xd000800), %g1
 6006f90:	c2 00 61 5c 	ld  [ %g1 + 0x15c ], %g1	! d00095c <pUsbDevReg>
 6006f94:	c4 00 60 e0 	ld  [ %g1 + 0xe0 ], %g2
 6006f98:	c4 27 bf fc 	st  %g2, [ %fp + -4 ]
 6006f9c:	c4 07 bf fc 	ld  [ %fp + -4 ], %g2
 6006fa0:	c4 20 60 e0 	st  %g2, [ %g1 + 0xe0 ]
 6006fa4:	c2 07 bf fc 	ld  [ %fp + -4 ], %g1
 6006fa8:	80 88 62 00 	btst  0x200, %g1
 6006fac:	12 80 00 06 	bne  6006fc4 <usb_dev_dsr+0x1b0>
 6006fb0:	01 00 00 00 	nop 
 6006fb4:	c2 07 bf fc 	ld  [ %fp + -4 ], %g1
 6006fb8:	80 88 60 40 	btst  0x40, %g1
 6006fbc:	02 80 00 11 	be  6007000 <usb_dev_dsr+0x1ec>
 6006fc0:	01 00 00 00 	nop 
 6006fc4:	7f ff fd a8 	call  6006664 <usb_bk_in>
 6006fc8:	81 e8 00 00 	restore 
 6006fcc:	7f ff ff 54 	call  6006d1c <usb_dev_init>
 6006fd0:	01 00 00 00 	nop 
 6006fd4:	82 10 20 01 	mov  1, %g1	! 1 <data_start+0x1>
 6006fd8:	c2 2c 21 48 	stb  %g1, [ %l0 + 0x148 ]
 6006fdc:	81 c7 e0 08 	ret 
 6006fe0:	81 e8 00 00 	restore 
 6006fe4:	c2 07 bf fc 	ld  [ %fp + -4 ], %g1
 6006fe8:	80 88 64 00 	btst  0x400, %g1
 6006fec:	02 80 00 05 	be  6007000 <usb_dev_dsr+0x1ec>
 6006ff0:	01 00 00 00 	nop 
 6006ff4:	7f ff f9 2c 	call  60054a4 <usb_cep_update>
 6006ff8:	81 e8 00 00 	restore 
 6006ffc:	c4 20 60 2c 	st  %g2, [ %g1 + 0x2c ]
 6007000:	81 c7 e0 08 	ret 
 6007004:	81 e8 00 00 	restore 
 6007008:	7f ff fa be 	call  6005b00 <usb_cep_setup>
 600700c:	81 e8 00 00 	restore 
 6007010:	01 00 00 00 	nop 

06007014 <usb_init>:
 6007014:	9d e3 bf a0 	save  %sp, -96, %sp
 6007018:	03 03 40 02 	sethi  %hi(0xd000800), %g1
 600701c:	05 04 44 01 	sethi  %hi(0x11100400), %g2
 6007020:	84 10 a3 00 	or  %g2, 0x300, %g2	! 11100700 <RAM_END+0x40f9700>
 6007024:	c4 20 61 4c 	st  %g2, [ %g1 + 0x14c ]
 6007028:	03 03 40 02 	sethi  %hi(0xd000800), %g1
 600702c:	05 04 44 00 	sethi  %hi(0x11100000), %g2
 6007030:	21 03 40 00 	sethi  %hi(0xd000000), %l0
 6007034:	c4 20 61 5c 	st  %g2, [ %g1 + 0x15c ]
 6007038:	03 03 40 00 	sethi  %hi(0xd000000), %g1
 600703c:	05 08 00 40 	sethi  %hi(0x20010000), %g2
 6007040:	92 10 20 00 	clr  %o1
 6007044:	c4 20 60 b8 	st  %g2, [ %g1 + 0xb8 ]
 6007048:	94 10 20 20 	mov  0x20, %o2
 600704c:	7f ff e7 43 	call  6000d58 <memset8>
 6007050:	90 14 20 98 	or  %l0, 0x98, %o0
 6007054:	82 14 20 98 	or  %l0, 0x98, %g1
 6007058:	84 10 20 04 	mov  4, %g2
 600705c:	21 03 40 00 	sethi  %hi(0xd000000), %l0
 6007060:	c0 28 60 08 	clrb  [ %g1 + 8 ]
 6007064:	c4 28 60 17 	stb  %g2, [ %g1 + 0x17 ]
 6007068:	c4 28 60 13 	stb  %g2, [ %g1 + 0x13 ]
 600706c:	c0 28 60 09 	clrb  [ %g1 + 9 ]
 6007070:	c0 28 60 0a 	clrb  [ %g1 + 0xa ]
 6007074:	c0 28 60 0b 	clrb  [ %g1 + 0xb ]
 6007078:	c0 28 60 10 	clrb  [ %g1 + 0x10 ]
 600707c:	c0 28 60 11 	clrb  [ %g1 + 0x11 ]
 6007080:	c0 28 60 12 	clrb  [ %g1 + 0x12 ]
 6007084:	c0 28 60 14 	clrb  [ %g1 + 0x14 ]
 6007088:	c0 28 60 15 	clrb  [ %g1 + 0x15 ]
 600708c:	c0 28 60 16 	clrb  [ %g1 + 0x16 ]
 6007090:	92 10 20 00 	clr  %o1
 6007094:	94 10 20 48 	mov  0x48, %o2
 6007098:	7f ff e7 30 	call  6000d58 <memset8>
 600709c:	90 14 20 48 	or  %l0, 0x48, %o0
 60070a0:	03 03 40 00 	sethi  %hi(0xd000000), %g1
 60070a4:	1b 03 40 00 	sethi  %hi(0xd000000), %o5
 60070a8:	19 03 40 00 	sethi  %hi(0xd000000), %o4
 60070ac:	c0 20 60 c0 	clr  [ %g1 + 0xc0 ]
 60070b0:	c0 23 60 94 	clr  [ %o5 + 0x94 ]
 60070b4:	a0 14 20 48 	or  %l0, 0x48, %l0
 60070b8:	03 03 40 00 	sethi  %hi(0xd000000), %g1
 60070bc:	82 10 60 c8 	or  %g1, 0xc8, %g1	! d0000c8 <usb_cmd_buf>
 60070c0:	84 08 60 ff 	and  %g1, 0xff, %g2
 60070c4:	9a 10 20 01 	mov  1, %o5
 60070c8:	da 23 20 bc 	st  %o5, [ %o4 + 0xbc ]
 60070cc:	19 03 40 00 	sethi  %hi(0xd000000), %o4
 60070d0:	89 30 60 18 	srl  %g1, 0x18, %g4
 60070d4:	c4 2c 20 47 	stb  %g2, [ %l0 + 0x47 ]
 60070d8:	87 30 60 10 	srl  %g1, 0x10, %g3
 60070dc:	83 30 60 08 	srl  %g1, 8, %g1
 60070e0:	86 08 e0 ff 	and  %g3, 0xff, %g3
 60070e4:	82 08 60 ff 	and  %g1, 0xff, %g1
 60070e8:	da 23 20 90 	st  %o5, [ %o4 + 0x90 ]
 60070ec:	1b 03 40 02 	sethi  %hi(0xd000800), %o5
 60070f0:	c8 2c 20 44 	stb  %g4, [ %l0 + 0x44 ]
 60070f4:	c6 2c 20 45 	stb  %g3, [ %l0 + 0x45 ]
 60070f8:	c2 2c 20 46 	stb  %g1, [ %l0 + 0x46 ]
 60070fc:	c0 2b 61 48 	clrb  [ %o5 + 0x148 ]
 6007100:	c8 2c 20 38 	stb  %g4, [ %l0 + 0x38 ]
 6007104:	c6 2c 20 39 	stb  %g3, [ %l0 + 0x39 ]
 6007108:	c2 2c 20 3a 	stb  %g1, [ %l0 + 0x3a ]
 600710c:	7f ff f8 2e 	call  60051c4 <usb_otg_init>
 6007110:	c4 2c 20 3b 	stb  %g2, [ %l0 + 0x3b ]
 6007114:	7f ff ff 02 	call  6006d1c <usb_dev_init>
 6007118:	81 e8 00 00 	restore 
 600711c:	01 00 00 00 	nop 

06007120 <stdBuf>:
 6007120:	ac 4a 52 56 f8 36 b3 73 4a 83 d4 83 fd 82 55 c9     .JRV.6.sJ.....U.
 6007130:	a7 8d 0b bf 29 67 4f c4 e6 17 a6 2d 6e 8b b6 80     ....)gO....-n...
 6007140:	8f ea 99 7d 9c 4d 8a b1 71 4d fa 47 68 aa 7f c1     ...}.M..qM.Gh...
 6007150:	57 6a b7 64 c6 35 96 72 fe d4 1f eb 10 1a 93 22     Wj.d.5.r......."
 6007160:	73 12 2c aa 7e 3a b0 8d 28 bc 34 3d f2 4d b0 b0     s.,.~:..(.4=.M..
 6007170:	6b 32 55 30 11 1b 38 2d a4 cc 3e b2 a1 3f f9 47     k2U0..8-..>..?.G
 6007180:	e5 38 40 57 50 03 b8 ee cf 4c b4 69 34 42 8a 59     .8@WP....L.i4B.Y
 6007190:	bc fd 33 cd 26 60 fe 30 44 d9 13 75 66 51 04 c5     ..3.&`.0D..ufQ..
 60071a0:	09 98 c1 e0 1d af 27 64 5f b7 e5 31 1b 60 9f a4     ......'d_..1.`..
 60071b0:	b6 2c 57 cb f6 ce ab dc 5d 9c 60 0d f4 2c 3d 97     .,W.....].`..,=.
 60071c0:	91 b4 4f 88 bd 4c 76 9f 60 81 64 5f e5 08 f4 1c     ..O..Lv.`.d_....
 60071d0:	58 de 7c 1f 4b b5 f0 b5 06 76 1c 35 39 2f a6 58     X.|.K....v.59/.X
 60071e0:	49 50 3e 74 e2 e9 94 f7 f1 6e 00 a2 aa 18 08 ed     IP>t.....n......
 60071f0:	b3 7c 0f 9d ba e6 78 62 e4 10 f0 10 f0 3f 36 48     .|....xb.....?6H
 6007200:	8b f2 15 2d 10 1d 64 65 c5 07 3e 8c 51 f8 47 6e     ...-..de..>.Q.Gn
 6007210:	f1 2f b0 84 b4 3a 5e b0 b6 d2 bc 20 ae c2 d4 4e     ./...:^.... ...N
 6007220:	cb 69 0f 22 1f 7f 3b 87 22 18 d5 95 18 92 93 93     .i."..;.".......
 6007230:	4e e4 38 f1 7a 0a b0 0f cb 6f 14 ce 5a a5 5e f1     N.8.z....o..Z.^.
 6007240:	0e 43 9c a1 39 ab e2 1e 61 34 36 15 0f 52 c6 f8     .C..9...a46..R..
 6007250:	96 50 2d e9 a1 34 f4 90 08 58 bb 68 2e 57 a5 60     .P-..4...X.h.W.`
 6007260:	ec d4 60 63 de 44 1a 91 71 30 fc 4c 9a aa aa db     ..`c.D..q0.L....
 6007270:	ad e6 cd 53 14 9c a3 6f 65 c4 af 9c b7 4c 6e 6a     ...S...oe....Lnj
 6007280:	94 b6 32 fe e4 6d 92 6a 56 24 80 5b f3 12 fe 21     ..2..m.jV$.[...!
 6007290:	8d 62 8b 79 0f 28 27 06 ed b0 1d 80 5c 7c f1 05     .b.y.('.....\|..
 60072a0:	47 c4 9e f3 72 4f f1 d5 a3 6e 47 4a 28 80 75 4f     G...rO...nGJ(.uO
 60072b0:	be 43 0d 8c 25 43 e0 53 43 d9 66 8c 50 e1 dc 49     .C..%C.SC.f.P..I
 60072c0:	58 9f 63 a1 03 16 52 27 85 b0 11 02 97 f4 36 12     X.c...R'......6.
 60072d0:	63 48 2a 1f bb db 24 7d 19 c4 a2 9c 9f 7c d1 f3     cH*...$}.....|..
 60072e0:	b2 aa f4 4f e5 f4 42 54 3a 4e ca d2 76 f0 da b5     ...O..BT:N..v...
 60072f0:	2c fa 72 2a 0d 64 b9 cb b8 37 9c 71 29 d0 e3 e5     ,.r*.d...7.q)...
 6007300:	53 8d fa 25 41 1d c3 76 12 70 1c 6d 4e f7 f4 ae     S..%A..v.p.mN...
 6007310:	61 a3 a4 86 a6 53 5d 29 7d bd d2 30 9e e6 9d a3     a....S])}..0....

06007320 <NandFlashInfoString_default>:
 6007320:	20 03 50 00 30 00 38 00 4b 00 2d 00 42 00 31 00      .P.0.8.K.-.B.1.
 6007330:	36 00 2d 00 41 00 33 00 2d 00 45 00 32 00 34 00     6.-.A.3.-.E.2.4.

06007340 <tCLS>:
 6007340:	03 01 01 01 00 00 00 00                             ........

06007348 <tCLH>:
 6007348:	01 00 00 00 00 00 00 00                             ........

06007350 <tALS>:
 6007350:	03 01 01 01 00 00 00 00                             ........

06007358 <tALH>:
 6007358:	01 00 00 00 00 00 00 00                             ........

06007360 <tRP>:
 6007360:	03 01 01 01 01 01 00 00                             ........

06007368 <tWP>:
 6007368:	03 01 01 01 00 00 00 00                             ........

06007370 <tWHR>:
 6007370:	08 05 05 04 04 04 00 00                             ........

06007378 <tRHW>:
 6007378:	0d 07 07 07 07 07 00 00                             ........

06007380 <tWB>:
 6007380:	0d 06 06 06 06 06 00 00                             ........

06007388 <tADL>:
 6007388:	0d 06 06 06 04 04 00 00                             ........

06007390 <tRR>:
 6007390:	02 01 01 01 01 01 00 00                             ........

06007398 <tCCS>:
 6007398:	0d 0d 0d 0d 0d 0d 00 00                             ........

060073a0 <tCS>:
 60073a0:	04 02 01 01 01 01 00 00                             ........

060073a8 <usb_data_desc_device>:
 60073a8:	12 01 00 02 00 00 00 40 ff ff ee ee 00 01 01 02     .......@........
 60073b8:	03 01 00 00 00 00 00 00                             ........

060073c0 <usb_data_desc_config>:
 60073c0:	09 02 20 00 01 01 00 c0 32 09 04 00 00 02 08 06     .. .....2.......
 60073d0:	50 00 07 05 03 02 00 02 00 07 05 84 02 00 02 00     P...............

060073e0 <usb_data_desc_string0>:
 60073e0:	04 03 09 04 00 00 00 00                             ........

060073e8 <usb_data_desc_string1>:
 60073e8:	20 03 41 00 42 00 43 00 44 00 45 00 46 00 47 00      .A.B.C.D.E.F.G.
 60073f8:	48 00 49 00 50 00 51 00 52 00 53 00 54 00 55 00     H.I.P.Q.R.S.T.U.

06007408 <usb_data_desc_string2>:
 6007408:	20 03 41 00 42 00 43 00 44 00 45 00 46 00 47 00      .A.B.C.D.E.F.G.
 6007418:	48 00 49 00 50 00 51 00 52 00 53 00 54 00 55 00     H.I.P.Q.R.S.T.U.

06007428 <usb_data_desc_string3>:
 6007428:	20 03 41 00 42 00 43 00 44 00 45 00 46 00 47 00      .A.B.C.D.E.F.G.
 6007438:	48 00 49 00 50 00 51 00 52 00 53 00 54 00 55 00     H.I.P.Q.R.S.T.U.

06007448 <usb_data_desc_qualifier>:
 6007448:	0a 06 00 02 00 00 00 40 01 00 00 00 00 00 00 00     .......@........

06007458 <usb_data_udisk_inquiry>:
 6007458:	00 80 00 01 1f 00 00 00 58 58 58 58 58 58 58 20     ........XXXXXXX 
 6007468:	55 73 62 20 4d 61 73 73 20 53 74 6f 72 61 67 65     Usb Mass Storage
 6007478:	31 2e 30 30 00 00 00 00                             1.00....

06007480 <usb_data_udisk_mode_sense6>:
 6007480:	03 00 00 00 00 00 00 00                             ........

06007488 <usb_data_udisk_mode_sense10>:
 6007488:	03 00 00 00 00 00 00 00                             ........

06007490 <usb_data_udisk_request_sense>:
 6007490:	f0 00 06 00 00 00 00 0a 00 00 00 00 28 00 00 00     ............(...
	...

060074a8 <usb_data_udisk_read_capacity>:
 60074a8:	00 01 00 00 00 00 04 00                             ........

060074b0 <usb_data_udisk_read_formate_capacity>:
 60074b0:	00 00 00 08 00 01 00 00 04 00 04 00 00 00 00 00     ................
